	.text
	.file	"test.cpp"
	.section	.text.startup,"ax",@progbits
	.p2align	4, 0x90         # -- Begin function __cxx_global_var_init
	.type	__cxx_global_var_init,@function
__cxx_global_var_init:                  # @__cxx_global_var_init
	.cfi_startproc
# %bb.0:
	pushq	%rbp
	.cfi_def_cfa_offset 16
	.cfi_offset %rbp, -16
	movq	%rsp, %rbp
	.cfi_def_cfa_register %rbp
	subq	$16, %rsp
	movabsq	$_ZStL8__ioinit, %rdi
	callq	_ZNSt8ios_base4InitC1Ev
	movabsq	$_ZNSt8ios_base4InitD1Ev, %rdi
	movabsq	$_ZStL8__ioinit, %rsi
	movabsq	$__dso_handle, %rdx
	callq	__cxa_atexit
	movl	%eax, -4(%rbp)          # 4-byte Spill
	addq	$16, %rsp
	popq	%rbp
	retq
.Lfunc_end0:
	.size	__cxx_global_var_init, .Lfunc_end0-__cxx_global_var_init
	.cfi_endproc
                                        # -- End function
	.text
	.globl	main                    # -- Begin function main
	.p2align	4, 0x90
	.type	main,@function
main:                                   # @main
.Lfunc_begin0:
	.cfi_startproc
	.cfi_personality 3, __gxx_personality_v0
	.cfi_lsda 3, .Lexception0
# %bb.0:
	pushq	%rbp
	.cfi_def_cfa_offset 16
	.cfi_offset %rbp, -16
	movq	%rsp, %rbp
	.cfi_def_cfa_register %rbp
	subq	$96, %rsp
	leaq	-48(%rbp), %rax
	movq	%rax, %rdi
	movq	%rax, -72(%rbp)         # 8-byte Spill
	callq	_ZNSaIcEC1Ev
.Ltmp0:
	movl	$.L.str, %ecx
	movl	%ecx, %esi
	leaq	-40(%rbp), %rdi
	movq	-72(%rbp), %rdx         # 8-byte Reload
	callq	_ZNSt7__cxx1112basic_stringIcSt11char_traitsIcESaIcEEC1EPKcRKS3_
.Ltmp1:
	jmp	.LBB1_1
.LBB1_1:
.Ltmp3:
	leaq	-8(%rbp), %rdi
	leaq	-40(%rbp), %rsi
	callq	_ZN8Solution24lengthOfLongestSubstringENSt7__cxx1112basic_stringIcSt11char_traitsIcESaIcEEE
.Ltmp4:
	movl	%eax, -76(%rbp)         # 4-byte Spill
	jmp	.LBB1_2
.LBB1_2:
.Ltmp5:
	movl	$_ZSt4cout, %eax
	movl	%eax, %edi
	movl	-76(%rbp), %esi         # 4-byte Reload
	callq	_ZNSolsEi
.Ltmp6:
	movq	%rax, -88(%rbp)         # 8-byte Spill
	jmp	.LBB1_3
.LBB1_3:
.Ltmp7:
	movl	$_ZSt4endlIcSt11char_traitsIcEERSt13basic_ostreamIT_T0_ES6_, %eax
	movl	%eax, %esi
	movq	-88(%rbp), %rdi         # 8-byte Reload
	callq	_ZNSolsEPFRSoS_E
.Ltmp8:
	movq	%rax, -96(%rbp)         # 8-byte Spill
	jmp	.LBB1_4
.LBB1_4:
	leaq	-40(%rbp), %rdi
	callq	_ZNSt7__cxx1112basic_stringIcSt11char_traitsIcESaIcEED1Ev
	leaq	-48(%rbp), %rdi
	callq	_ZNSaIcED1Ev
	xorl	%eax, %eax
	addq	$96, %rsp
	popq	%rbp
	retq
.LBB1_5:
.Ltmp2:
	movl	%edx, %ecx
	movq	%rax, -56(%rbp)
	movl	%ecx, -60(%rbp)
	jmp	.LBB1_7
.LBB1_6:
.Ltmp9:
	leaq	-40(%rbp), %rdi
	movl	%edx, %ecx
	movq	%rax, -56(%rbp)
	movl	%ecx, -60(%rbp)
	callq	_ZNSt7__cxx1112basic_stringIcSt11char_traitsIcESaIcEED1Ev
.LBB1_7:
	leaq	-48(%rbp), %rdi
	callq	_ZNSaIcED1Ev
# %bb.8:
	movq	-56(%rbp), %rdi
	callq	_Unwind_Resume
.Lfunc_end1:
	.size	main, .Lfunc_end1-main
	.cfi_endproc
	.section	.gcc_except_table,"a",@progbits
	.p2align	2
GCC_except_table1:
.Lexception0:
	.byte	255                     # @LPStart Encoding = omit
	.byte	3                       # @TType Encoding = udata4
	.byte	41                      # @TType base offset
	.byte	3                       # Call site Encoding = udata4
	.byte	39                      # Call site table length
	.long	.Ltmp0-.Lfunc_begin0    # >> Call Site 1 <<
	.long	.Ltmp1-.Ltmp0           #   Call between .Ltmp0 and .Ltmp1
	.long	.Ltmp2-.Lfunc_begin0    #     jumps to .Ltmp2
	.byte	0                       #   On action: cleanup
	.long	.Ltmp3-.Lfunc_begin0    # >> Call Site 2 <<
	.long	.Ltmp8-.Ltmp3           #   Call between .Ltmp3 and .Ltmp8
	.long	.Ltmp9-.Lfunc_begin0    #     jumps to .Ltmp9
	.byte	0                       #   On action: cleanup
	.long	.Ltmp8-.Lfunc_begin0    # >> Call Site 3 <<
	.long	.Lfunc_end1-.Ltmp8      #   Call between .Ltmp8 and .Lfunc_end1
	.long	0                       #     has no landing pad
	.byte	0                       #   On action: cleanup
	.p2align	2
                                        # -- End function
	.section	.text._ZN8Solution24lengthOfLongestSubstringENSt7__cxx1112basic_stringIcSt11char_traitsIcESaIcEEE,"axG",@progbits,_ZN8Solution24lengthOfLongestSubstringENSt7__cxx1112basic_stringIcSt11char_traitsIcESaIcEEE,comdat
	.weak	_ZN8Solution24lengthOfLongestSubstringENSt7__cxx1112basic_stringIcSt11char_traitsIcESaIcEEE # -- Begin function _ZN8Solution24lengthOfLongestSubstringENSt7__cxx1112basic_stringIcSt11char_traitsIcESaIcEEE
	.p2align	4, 0x90
	.type	_ZN8Solution24lengthOfLongestSubstringENSt7__cxx1112basic_stringIcSt11char_traitsIcESaIcEEE,@function
_ZN8Solution24lengthOfLongestSubstringENSt7__cxx1112basic_stringIcSt11char_traitsIcESaIcEEE: # @_ZN8Solution24lengthOfLongestSubstringENSt7__cxx1112basic_stringIcSt11char_traitsIcESaIcEEE
.Lfunc_begin1:
	.cfi_startproc
	.cfi_personality 3, __gxx_personality_v0
	.cfi_lsda 3, .Lexception1
# %bb.0:
	pushq	%rbp
	.cfi_def_cfa_offset 16
	.cfi_offset %rbp, -16
	movq	%rsp, %rbp
	.cfi_def_cfa_register %rbp
	subq	$192, %rsp
	movq	%rdi, -16(%rbp)
	movq	%rsi, %rdi
	movq	%rsi, -128(%rbp)        # 8-byte Spill
	callq	_ZNKSt7__cxx1112basic_stringIcSt11char_traitsIcESaIcEE6lengthEv
	cmpq	$1, %rax
	ja	.LBB2_2
# %bb.1:
	movq	-128(%rbp), %rdi        # 8-byte Reload
	callq	_ZNKSt7__cxx1112basic_stringIcSt11char_traitsIcESaIcEE6lengthEv
	movl	%eax, %ecx
	movl	%ecx, -4(%rbp)
	jmp	.LBB2_15
.LBB2_2:
	leaq	-80(%rbp), %rdi
	movl	$0, -20(%rbp)
	callq	_ZNSt13unordered_setIcSt4hashIcESt8equal_toIcESaIcEEC2Ev
	movl	$0, -84(%rbp)
	movl	$0, -88(%rbp)
.LBB2_3:                                # =>This Inner Loop Header: Depth=1
	movslq	-88(%rbp), %rax
	movq	-128(%rbp), %rdi        # 8-byte Reload
	movq	%rax, -136(%rbp)        # 8-byte Spill
	callq	_ZNKSt7__cxx1112basic_stringIcSt11char_traitsIcESaIcEE6lengthEv
	movq	-136(%rbp), %rdi        # 8-byte Reload
	cmpq	%rax, %rdi
	jae	.LBB2_14
# %bb.4:                                #   in Loop: Header=BB2_3 Depth=1
	movslq	-88(%rbp), %rsi
.Ltmp10:
	movq	-128(%rbp), %rdi        # 8-byte Reload
	callq	_ZNSt7__cxx1112basic_stringIcSt11char_traitsIcESaIcEEixEm
.Ltmp11:
	movq	%rax, -144(%rbp)        # 8-byte Spill
	jmp	.LBB2_5
.LBB2_5:                                #   in Loop: Header=BB2_3 Depth=1
.Ltmp12:
	leaq	-80(%rbp), %rdi
	movq	-144(%rbp), %rsi        # 8-byte Reload
	callq	_ZNSt13unordered_setIcSt4hashIcESt8equal_toIcESaIcEE6insertERKc
.Ltmp13:
	movb	%dl, -145(%rbp)         # 1-byte Spill
	movq	%rax, -160(%rbp)        # 8-byte Spill
	jmp	.LBB2_6
.LBB2_6:                                #   in Loop: Header=BB2_3 Depth=1
	movq	-160(%rbp), %rax        # 8-byte Reload
	movq	%rax, -104(%rbp)
	movb	-145(%rbp), %cl         # 1-byte Reload
	movb	%cl, -96(%rbp)
	movb	-96(%rbp), %cl
	andb	$1, %cl
	movzbl	%cl, %edx
	cmpl	$0, %edx
	jne	.LBB2_11
# %bb.7:                                #   in Loop: Header=BB2_3 Depth=1
	movslq	-84(%rbp), %rsi
.Ltmp16:
	movq	-128(%rbp), %rdi        # 8-byte Reload
	callq	_ZNSt7__cxx1112basic_stringIcSt11char_traitsIcESaIcEEixEm
.Ltmp17:
	movq	%rax, -168(%rbp)        # 8-byte Spill
	jmp	.LBB2_8
.LBB2_8:                                #   in Loop: Header=BB2_3 Depth=1
.Ltmp18:
	leaq	-80(%rbp), %rdi
	movq	-168(%rbp), %rsi        # 8-byte Reload
	callq	_ZNSt13unordered_setIcSt4hashIcESt8equal_toIcESaIcEE5eraseERKc
.Ltmp19:
	movq	%rax, -176(%rbp)        # 8-byte Spill
	jmp	.LBB2_9
.LBB2_9:                                #   in Loop: Header=BB2_3 Depth=1
	movl	-84(%rbp), %eax
	addl	$1, %eax
	movl	%eax, -84(%rbp)
	jmp	.LBB2_13
.LBB2_10:
.Ltmp20:
	leaq	-80(%rbp), %rdi
	movl	%edx, %ecx
	movq	%rax, -112(%rbp)
	movl	%ecx, -116(%rbp)
	callq	_ZNSt13unordered_setIcSt4hashIcESt8equal_toIcESaIcEED2Ev
	jmp	.LBB2_16
.LBB2_11:                               #   in Loop: Header=BB2_3 Depth=1
	movl	-88(%rbp), %eax
	addl	$1, %eax
	movl	%eax, -88(%rbp)
	movl	-88(%rbp), %eax
	movl	-84(%rbp), %ecx
	subl	%ecx, %eax
	addl	$1, %eax
	movl	%eax, -120(%rbp)
.Ltmp14:
	leaq	-20(%rbp), %rdi
	leaq	-120(%rbp), %rsi
	callq	_ZSt3maxIiERKT_S2_S2_
.Ltmp15:
	movq	%rax, -184(%rbp)        # 8-byte Spill
	jmp	.LBB2_12
.LBB2_12:                               #   in Loop: Header=BB2_3 Depth=1
	movq	-184(%rbp), %rax        # 8-byte Reload
	movl	(%rax), %ecx
	movl	%ecx, -20(%rbp)
.LBB2_13:                               #   in Loop: Header=BB2_3 Depth=1
	jmp	.LBB2_3
.LBB2_14:
	leaq	-80(%rbp), %rdi
	movl	-20(%rbp), %eax
	movl	%eax, -4(%rbp)
	callq	_ZNSt13unordered_setIcSt4hashIcESt8equal_toIcESaIcEED2Ev
.LBB2_15:
	movl	-4(%rbp), %eax
	addq	$192, %rsp
	popq	%rbp
	retq
.LBB2_16:
	movq	-112(%rbp), %rdi
	callq	_Unwind_Resume
.Lfunc_end2:
	.size	_ZN8Solution24lengthOfLongestSubstringENSt7__cxx1112basic_stringIcSt11char_traitsIcESaIcEEE, .Lfunc_end2-_ZN8Solution24lengthOfLongestSubstringENSt7__cxx1112basic_stringIcSt11char_traitsIcESaIcEEE
	.cfi_endproc
	.section	.gcc_except_table,"a",@progbits
	.p2align	2
GCC_except_table2:
.Lexception1:
	.byte	255                     # @LPStart Encoding = omit
	.byte	3                       # @TType Encoding = udata4
	.asciz	"\234"                  # @TType base offset
	.byte	3                       # Call site Encoding = udata4
	.byte	26                      # Call site table length
	.long	.Ltmp10-.Lfunc_begin1   # >> Call Site 1 <<
	.long	.Ltmp15-.Ltmp10         #   Call between .Ltmp10 and .Ltmp15
	.long	.Ltmp20-.Lfunc_begin1   #     jumps to .Ltmp20
	.byte	0                       #   On action: cleanup
	.long	.Ltmp15-.Lfunc_begin1   # >> Call Site 2 <<
	.long	.Lfunc_end2-.Ltmp15     #   Call between .Ltmp15 and .Lfunc_end2
	.long	0                       #     has no landing pad
	.byte	0                       #   On action: cleanup
	.p2align	2
                                        # -- End function
	.section	.text._ZNSt13unordered_setIcSt4hashIcESt8equal_toIcESaIcEEC2Ev,"axG",@progbits,_ZNSt13unordered_setIcSt4hashIcESt8equal_toIcESaIcEEC2Ev,comdat
	.weak	_ZNSt13unordered_setIcSt4hashIcESt8equal_toIcESaIcEEC2Ev # -- Begin function _ZNSt13unordered_setIcSt4hashIcESt8equal_toIcESaIcEEC2Ev
	.p2align	4, 0x90
	.type	_ZNSt13unordered_setIcSt4hashIcESt8equal_toIcESaIcEEC2Ev,@function
_ZNSt13unordered_setIcSt4hashIcESt8equal_toIcESaIcEEC2Ev: # @_ZNSt13unordered_setIcSt4hashIcESt8equal_toIcESaIcEEC2Ev
	.cfi_startproc
# %bb.0:
	pushq	%rbp
	.cfi_def_cfa_offset 16
	.cfi_offset %rbp, -16
	movq	%rsp, %rbp
	.cfi_def_cfa_register %rbp
	subq	$16, %rsp
	movq	%rdi, -8(%rbp)
	movq	-8(%rbp), %rdi
	callq	_ZNSt10_HashtableIccSaIcENSt8__detail9_IdentityESt8equal_toIcESt4hashIcENS1_18_Mod_range_hashingENS1_20_Default_ranged_hashENS1_20_Prime_rehash_policyENS1_17_Hashtable_traitsILb0ELb1ELb1EEEEC2Ev
	addq	$16, %rsp
	popq	%rbp
	retq
.Lfunc_end3:
	.size	_ZNSt13unordered_setIcSt4hashIcESt8equal_toIcESaIcEEC2Ev, .Lfunc_end3-_ZNSt13unordered_setIcSt4hashIcESt8equal_toIcESaIcEEC2Ev
	.cfi_endproc
                                        # -- End function
	.section	.text._ZNSt13unordered_setIcSt4hashIcESt8equal_toIcESaIcEE6insertERKc,"axG",@progbits,_ZNSt13unordered_setIcSt4hashIcESt8equal_toIcESaIcEE6insertERKc,comdat
	.weak	_ZNSt13unordered_setIcSt4hashIcESt8equal_toIcESaIcEE6insertERKc # -- Begin function _ZNSt13unordered_setIcSt4hashIcESt8equal_toIcESaIcEE6insertERKc
	.p2align	4, 0x90
	.type	_ZNSt13unordered_setIcSt4hashIcESt8equal_toIcESaIcEE6insertERKc,@function
_ZNSt13unordered_setIcSt4hashIcESt8equal_toIcESaIcEE6insertERKc: # @_ZNSt13unordered_setIcSt4hashIcESt8equal_toIcESaIcEE6insertERKc
	.cfi_startproc
# %bb.0:
	pushq	%rbp
	.cfi_def_cfa_offset 16
	.cfi_offset %rbp, -16
	movq	%rsp, %rbp
	.cfi_def_cfa_register %rbp
	subq	$32, %rsp
	movq	%rdi, -24(%rbp)
	movq	%rsi, -32(%rbp)
	movq	-24(%rbp), %rdi
	movq	-32(%rbp), %rsi
	callq	_ZNSt8__detail12_Insert_baseIccSaIcENS_9_IdentityESt8equal_toIcESt4hashIcENS_18_Mod_range_hashingENS_20_Default_ranged_hashENS_20_Prime_rehash_policyENS_17_Hashtable_traitsILb0ELb1ELb1EEEE6insertERKc
	movq	%rax, -16(%rbp)
	movb	%dl, -8(%rbp)
	movq	-16(%rbp), %rax
	movb	-8(%rbp), %dl
	addq	$32, %rsp
	popq	%rbp
	retq
.Lfunc_end4:
	.size	_ZNSt13unordered_setIcSt4hashIcESt8equal_toIcESaIcEE6insertERKc, .Lfunc_end4-_ZNSt13unordered_setIcSt4hashIcESt8equal_toIcESaIcEE6insertERKc
	.cfi_endproc
                                        # -- End function
	.section	.text._ZNSt13unordered_setIcSt4hashIcESt8equal_toIcESaIcEE5eraseERKc,"axG",@progbits,_ZNSt13unordered_setIcSt4hashIcESt8equal_toIcESaIcEE5eraseERKc,comdat
	.weak	_ZNSt13unordered_setIcSt4hashIcESt8equal_toIcESaIcEE5eraseERKc # -- Begin function _ZNSt13unordered_setIcSt4hashIcESt8equal_toIcESaIcEE5eraseERKc
	.p2align	4, 0x90
	.type	_ZNSt13unordered_setIcSt4hashIcESt8equal_toIcESaIcEE5eraseERKc,@function
_ZNSt13unordered_setIcSt4hashIcESt8equal_toIcESaIcEE5eraseERKc: # @_ZNSt13unordered_setIcSt4hashIcESt8equal_toIcESaIcEE5eraseERKc
	.cfi_startproc
# %bb.0:
	pushq	%rbp
	.cfi_def_cfa_offset 16
	.cfi_offset %rbp, -16
	movq	%rsp, %rbp
	.cfi_def_cfa_register %rbp
	subq	$16, %rsp
	movq	%rdi, -8(%rbp)
	movq	%rsi, -16(%rbp)
	movq	-8(%rbp), %rdi
	movq	-16(%rbp), %rsi
	callq	_ZNSt10_HashtableIccSaIcENSt8__detail9_IdentityESt8equal_toIcESt4hashIcENS1_18_Mod_range_hashingENS1_20_Default_ranged_hashENS1_20_Prime_rehash_policyENS1_17_Hashtable_traitsILb0ELb1ELb1EEEE5eraseERKc
	addq	$16, %rsp
	popq	%rbp
	retq
.Lfunc_end5:
	.size	_ZNSt13unordered_setIcSt4hashIcESt8equal_toIcESaIcEE5eraseERKc, .Lfunc_end5-_ZNSt13unordered_setIcSt4hashIcESt8equal_toIcESaIcEE5eraseERKc
	.cfi_endproc
                                        # -- End function
	.section	.text._ZSt3maxIiERKT_S2_S2_,"axG",@progbits,_ZSt3maxIiERKT_S2_S2_,comdat
	.weak	_ZSt3maxIiERKT_S2_S2_   # -- Begin function _ZSt3maxIiERKT_S2_S2_
	.p2align	4, 0x90
	.type	_ZSt3maxIiERKT_S2_S2_,@function
_ZSt3maxIiERKT_S2_S2_:                  # @_ZSt3maxIiERKT_S2_S2_
	.cfi_startproc
# %bb.0:
	pushq	%rbp
	.cfi_def_cfa_offset 16
	.cfi_offset %rbp, -16
	movq	%rsp, %rbp
	.cfi_def_cfa_register %rbp
	movq	%rdi, -16(%rbp)
	movq	%rsi, -24(%rbp)
	movq	-16(%rbp), %rsi
	movl	(%rsi), %eax
	movq	-24(%rbp), %rsi
	cmpl	(%rsi), %eax
	jge	.LBB6_2
# %bb.1:
	movq	-24(%rbp), %rax
	movq	%rax, -8(%rbp)
	jmp	.LBB6_3
.LBB6_2:
	movq	-16(%rbp), %rax
	movq	%rax, -8(%rbp)
.LBB6_3:
	movq	-8(%rbp), %rax
	popq	%rbp
	retq
.Lfunc_end6:
	.size	_ZSt3maxIiERKT_S2_S2_, .Lfunc_end6-_ZSt3maxIiERKT_S2_S2_
	.cfi_endproc
                                        # -- End function
	.section	.text._ZNSt13unordered_setIcSt4hashIcESt8equal_toIcESaIcEED2Ev,"axG",@progbits,_ZNSt13unordered_setIcSt4hashIcESt8equal_toIcESaIcEED2Ev,comdat
	.weak	_ZNSt13unordered_setIcSt4hashIcESt8equal_toIcESaIcEED2Ev # -- Begin function _ZNSt13unordered_setIcSt4hashIcESt8equal_toIcESaIcEED2Ev
	.p2align	4, 0x90
	.type	_ZNSt13unordered_setIcSt4hashIcESt8equal_toIcESaIcEED2Ev,@function
_ZNSt13unordered_setIcSt4hashIcESt8equal_toIcESaIcEED2Ev: # @_ZNSt13unordered_setIcSt4hashIcESt8equal_toIcESaIcEED2Ev
	.cfi_startproc
# %bb.0:
	pushq	%rbp
	.cfi_def_cfa_offset 16
	.cfi_offset %rbp, -16
	movq	%rsp, %rbp
	.cfi_def_cfa_register %rbp
	subq	$16, %rsp
	movq	%rdi, -8(%rbp)
	movq	-8(%rbp), %rdi
	callq	_ZNSt10_HashtableIccSaIcENSt8__detail9_IdentityESt8equal_toIcESt4hashIcENS1_18_Mod_range_hashingENS1_20_Default_ranged_hashENS1_20_Prime_rehash_policyENS1_17_Hashtable_traitsILb0ELb1ELb1EEEED2Ev
	addq	$16, %rsp
	popq	%rbp
	retq
.Lfunc_end7:
	.size	_ZNSt13unordered_setIcSt4hashIcESt8equal_toIcESaIcEED2Ev, .Lfunc_end7-_ZNSt13unordered_setIcSt4hashIcESt8equal_toIcESaIcEED2Ev
	.cfi_endproc
                                        # -- End function
	.section	.rodata.cst4,"aM",@progbits,4
	.p2align	2               # -- Begin function _ZNSt10_HashtableIccSaIcENSt8__detail9_IdentityESt8equal_toIcESt4hashIcENS1_18_Mod_range_hashingENS1_20_Default_ranged_hashENS1_20_Prime_rehash_policyENS1_17_Hashtable_traitsILb0ELb1ELb1EEEEC2Ev
.LCPI8_0:
	.long	1065353216              # float 1
	.section	.text._ZNSt10_HashtableIccSaIcENSt8__detail9_IdentityESt8equal_toIcESt4hashIcENS1_18_Mod_range_hashingENS1_20_Default_ranged_hashENS1_20_Prime_rehash_policyENS1_17_Hashtable_traitsILb0ELb1ELb1EEEEC2Ev,"axG",@progbits,_ZNSt10_HashtableIccSaIcENSt8__detail9_IdentityESt8equal_toIcESt4hashIcENS1_18_Mod_range_hashingENS1_20_Default_ranged_hashENS1_20_Prime_rehash_policyENS1_17_Hashtable_traitsILb0ELb1ELb1EEEEC2Ev,comdat
	.weak	_ZNSt10_HashtableIccSaIcENSt8__detail9_IdentityESt8equal_toIcESt4hashIcENS1_18_Mod_range_hashingENS1_20_Default_ranged_hashENS1_20_Prime_rehash_policyENS1_17_Hashtable_traitsILb0ELb1ELb1EEEEC2Ev
	.p2align	4, 0x90
	.type	_ZNSt10_HashtableIccSaIcENSt8__detail9_IdentityESt8equal_toIcESt4hashIcENS1_18_Mod_range_hashingENS1_20_Default_ranged_hashENS1_20_Prime_rehash_policyENS1_17_Hashtable_traitsILb0ELb1ELb1EEEEC2Ev,@function
_ZNSt10_HashtableIccSaIcENSt8__detail9_IdentityESt8equal_toIcESt4hashIcENS1_18_Mod_range_hashingENS1_20_Default_ranged_hashENS1_20_Prime_rehash_policyENS1_17_Hashtable_traitsILb0ELb1ELb1EEEEC2Ev: # @_ZNSt10_HashtableIccSaIcENSt8__detail9_IdentityESt8equal_toIcESt4hashIcENS1_18_Mod_range_hashingENS1_20_Default_ranged_hashENS1_20_Prime_rehash_policyENS1_17_Hashtable_traitsILb0ELb1ELb1EEEEC2Ev
	.cfi_startproc
# %bb.0:
	pushq	%rbp
	.cfi_def_cfa_offset 16
	.cfi_offset %rbp, -16
	movq	%rsp, %rbp
	.cfi_def_cfa_register %rbp
	subq	$16, %rsp
	movq	%rdi, -8(%rbp)
	movq	-8(%rbp), %rdi
	movq	%rdi, %rax
	movq	%rdi, -16(%rbp)         # 8-byte Spill
	movq	%rax, %rdi
	callq	_ZNSt8__detail16_Hashtable_allocISaINS_10_Hash_nodeIcLb0EEEEEC2Ev
	movq	-16(%rbp), %rax         # 8-byte Reload
	addq	$48, %rax
	movq	-16(%rbp), %rdi         # 8-byte Reload
	movq	%rax, (%rdi)
	movq	$1, 8(%rdi)
	addq	$16, %rdi
	callq	_ZNSt8__detail15_Hash_node_baseC2Ev
	movss	.LCPI8_0(%rip), %xmm0   # xmm0 = mem[0],zero,zero,zero
	movq	-16(%rbp), %rax         # 8-byte Reload
	movq	$0, 24(%rax)
	addq	$32, %rax
	movq	%rax, %rdi
	callq	_ZNSt8__detail20_Prime_rehash_policyC2Ef
	movq	-16(%rbp), %rax         # 8-byte Reload
	movq	$0, 48(%rax)
	addq	$16, %rsp
	popq	%rbp
	retq
.Lfunc_end8:
	.size	_ZNSt10_HashtableIccSaIcENSt8__detail9_IdentityESt8equal_toIcESt4hashIcENS1_18_Mod_range_hashingENS1_20_Default_ranged_hashENS1_20_Prime_rehash_policyENS1_17_Hashtable_traitsILb0ELb1ELb1EEEEC2Ev, .Lfunc_end8-_ZNSt10_HashtableIccSaIcENSt8__detail9_IdentityESt8equal_toIcESt4hashIcENS1_18_Mod_range_hashingENS1_20_Default_ranged_hashENS1_20_Prime_rehash_policyENS1_17_Hashtable_traitsILb0ELb1ELb1EEEEC2Ev
	.cfi_endproc
                                        # -- End function
	.section	.text._ZNSt8__detail16_Hashtable_allocISaINS_10_Hash_nodeIcLb0EEEEEC2Ev,"axG",@progbits,_ZNSt8__detail16_Hashtable_allocISaINS_10_Hash_nodeIcLb0EEEEEC2Ev,comdat
	.weak	_ZNSt8__detail16_Hashtable_allocISaINS_10_Hash_nodeIcLb0EEEEEC2Ev # -- Begin function _ZNSt8__detail16_Hashtable_allocISaINS_10_Hash_nodeIcLb0EEEEEC2Ev
	.p2align	4, 0x90
	.type	_ZNSt8__detail16_Hashtable_allocISaINS_10_Hash_nodeIcLb0EEEEEC2Ev,@function
_ZNSt8__detail16_Hashtable_allocISaINS_10_Hash_nodeIcLb0EEEEEC2Ev: # @_ZNSt8__detail16_Hashtable_allocISaINS_10_Hash_nodeIcLb0EEEEEC2Ev
	.cfi_startproc
# %bb.0:
	pushq	%rbp
	.cfi_def_cfa_offset 16
	.cfi_offset %rbp, -16
	movq	%rsp, %rbp
	.cfi_def_cfa_register %rbp
	subq	$16, %rsp
	movq	%rdi, -8(%rbp)
	movq	-8(%rbp), %rdi
	callq	_ZNSt8__detail21_Hashtable_ebo_helperILi0ESaINS_10_Hash_nodeIcLb0EEEELb1EEC2Ev
	addq	$16, %rsp
	popq	%rbp
	retq
.Lfunc_end9:
	.size	_ZNSt8__detail16_Hashtable_allocISaINS_10_Hash_nodeIcLb0EEEEEC2Ev, .Lfunc_end9-_ZNSt8__detail16_Hashtable_allocISaINS_10_Hash_nodeIcLb0EEEEEC2Ev
	.cfi_endproc
                                        # -- End function
	.section	.text._ZNSt8__detail15_Hash_node_baseC2Ev,"axG",@progbits,_ZNSt8__detail15_Hash_node_baseC2Ev,comdat
	.weak	_ZNSt8__detail15_Hash_node_baseC2Ev # -- Begin function _ZNSt8__detail15_Hash_node_baseC2Ev
	.p2align	4, 0x90
	.type	_ZNSt8__detail15_Hash_node_baseC2Ev,@function
_ZNSt8__detail15_Hash_node_baseC2Ev:    # @_ZNSt8__detail15_Hash_node_baseC2Ev
	.cfi_startproc
# %bb.0:
	pushq	%rbp
	.cfi_def_cfa_offset 16
	.cfi_offset %rbp, -16
	movq	%rsp, %rbp
	.cfi_def_cfa_register %rbp
	movq	%rdi, -8(%rbp)
	movq	-8(%rbp), %rdi
	movq	$0, (%rdi)
	popq	%rbp
	retq
.Lfunc_end10:
	.size	_ZNSt8__detail15_Hash_node_baseC2Ev, .Lfunc_end10-_ZNSt8__detail15_Hash_node_baseC2Ev
	.cfi_endproc
                                        # -- End function
	.section	.text._ZNSt8__detail20_Prime_rehash_policyC2Ef,"axG",@progbits,_ZNSt8__detail20_Prime_rehash_policyC2Ef,comdat
	.weak	_ZNSt8__detail20_Prime_rehash_policyC2Ef # -- Begin function _ZNSt8__detail20_Prime_rehash_policyC2Ef
	.p2align	4, 0x90
	.type	_ZNSt8__detail20_Prime_rehash_policyC2Ef,@function
_ZNSt8__detail20_Prime_rehash_policyC2Ef: # @_ZNSt8__detail20_Prime_rehash_policyC2Ef
	.cfi_startproc
# %bb.0:
	pushq	%rbp
	.cfi_def_cfa_offset 16
	.cfi_offset %rbp, -16
	movq	%rsp, %rbp
	.cfi_def_cfa_register %rbp
	movq	%rdi, -8(%rbp)
	movss	%xmm0, -12(%rbp)
	movq	-8(%rbp), %rdi
	movss	-12(%rbp), %xmm0        # xmm0 = mem[0],zero,zero,zero
	movss	%xmm0, (%rdi)
	movq	$0, 8(%rdi)
	popq	%rbp
	retq
.Lfunc_end11:
	.size	_ZNSt8__detail20_Prime_rehash_policyC2Ef, .Lfunc_end11-_ZNSt8__detail20_Prime_rehash_policyC2Ef
	.cfi_endproc
                                        # -- End function
	.section	.text._ZNSt8__detail21_Hashtable_ebo_helperILi0ESaINS_10_Hash_nodeIcLb0EEEELb1EEC2Ev,"axG",@progbits,_ZNSt8__detail21_Hashtable_ebo_helperILi0ESaINS_10_Hash_nodeIcLb0EEEELb1EEC2Ev,comdat
	.weak	_ZNSt8__detail21_Hashtable_ebo_helperILi0ESaINS_10_Hash_nodeIcLb0EEEELb1EEC2Ev # -- Begin function _ZNSt8__detail21_Hashtable_ebo_helperILi0ESaINS_10_Hash_nodeIcLb0EEEELb1EEC2Ev
	.p2align	4, 0x90
	.type	_ZNSt8__detail21_Hashtable_ebo_helperILi0ESaINS_10_Hash_nodeIcLb0EEEELb1EEC2Ev,@function
_ZNSt8__detail21_Hashtable_ebo_helperILi0ESaINS_10_Hash_nodeIcLb0EEEELb1EEC2Ev: # @_ZNSt8__detail21_Hashtable_ebo_helperILi0ESaINS_10_Hash_nodeIcLb0EEEELb1EEC2Ev
	.cfi_startproc
# %bb.0:
	pushq	%rbp
	.cfi_def_cfa_offset 16
	.cfi_offset %rbp, -16
	movq	%rsp, %rbp
	.cfi_def_cfa_register %rbp
	subq	$16, %rsp
	movq	%rdi, -8(%rbp)
	movq	-8(%rbp), %rdi
	callq	_ZNSaINSt8__detail10_Hash_nodeIcLb0EEEEC2Ev
	addq	$16, %rsp
	popq	%rbp
	retq
.Lfunc_end12:
	.size	_ZNSt8__detail21_Hashtable_ebo_helperILi0ESaINS_10_Hash_nodeIcLb0EEEELb1EEC2Ev, .Lfunc_end12-_ZNSt8__detail21_Hashtable_ebo_helperILi0ESaINS_10_Hash_nodeIcLb0EEEELb1EEC2Ev
	.cfi_endproc
                                        # -- End function
	.section	.text._ZNSaINSt8__detail10_Hash_nodeIcLb0EEEEC2Ev,"axG",@progbits,_ZNSaINSt8__detail10_Hash_nodeIcLb0EEEEC2Ev,comdat
	.weak	_ZNSaINSt8__detail10_Hash_nodeIcLb0EEEEC2Ev # -- Begin function _ZNSaINSt8__detail10_Hash_nodeIcLb0EEEEC2Ev
	.p2align	4, 0x90
	.type	_ZNSaINSt8__detail10_Hash_nodeIcLb0EEEEC2Ev,@function
_ZNSaINSt8__detail10_Hash_nodeIcLb0EEEEC2Ev: # @_ZNSaINSt8__detail10_Hash_nodeIcLb0EEEEC2Ev
	.cfi_startproc
# %bb.0:
	pushq	%rbp
	.cfi_def_cfa_offset 16
	.cfi_offset %rbp, -16
	movq	%rsp, %rbp
	.cfi_def_cfa_register %rbp
	subq	$16, %rsp
	movq	%rdi, -8(%rbp)
	movq	-8(%rbp), %rdi
	callq	_ZN9__gnu_cxx13new_allocatorINSt8__detail10_Hash_nodeIcLb0EEEEC2Ev
	addq	$16, %rsp
	popq	%rbp
	retq
.Lfunc_end13:
	.size	_ZNSaINSt8__detail10_Hash_nodeIcLb0EEEEC2Ev, .Lfunc_end13-_ZNSaINSt8__detail10_Hash_nodeIcLb0EEEEC2Ev
	.cfi_endproc
                                        # -- End function
	.section	.text._ZN9__gnu_cxx13new_allocatorINSt8__detail10_Hash_nodeIcLb0EEEEC2Ev,"axG",@progbits,_ZN9__gnu_cxx13new_allocatorINSt8__detail10_Hash_nodeIcLb0EEEEC2Ev,comdat
	.weak	_ZN9__gnu_cxx13new_allocatorINSt8__detail10_Hash_nodeIcLb0EEEEC2Ev # -- Begin function _ZN9__gnu_cxx13new_allocatorINSt8__detail10_Hash_nodeIcLb0EEEEC2Ev
	.p2align	4, 0x90
	.type	_ZN9__gnu_cxx13new_allocatorINSt8__detail10_Hash_nodeIcLb0EEEEC2Ev,@function
_ZN9__gnu_cxx13new_allocatorINSt8__detail10_Hash_nodeIcLb0EEEEC2Ev: # @_ZN9__gnu_cxx13new_allocatorINSt8__detail10_Hash_nodeIcLb0EEEEC2Ev
	.cfi_startproc
# %bb.0:
	pushq	%rbp
	.cfi_def_cfa_offset 16
	.cfi_offset %rbp, -16
	movq	%rsp, %rbp
	.cfi_def_cfa_register %rbp
	movq	%rdi, -8(%rbp)
	popq	%rbp
	retq
.Lfunc_end14:
	.size	_ZN9__gnu_cxx13new_allocatorINSt8__detail10_Hash_nodeIcLb0EEEEC2Ev, .Lfunc_end14-_ZN9__gnu_cxx13new_allocatorINSt8__detail10_Hash_nodeIcLb0EEEEC2Ev
	.cfi_endproc
                                        # -- End function
	.section	.text._ZNSt8__detail12_Insert_baseIccSaIcENS_9_IdentityESt8equal_toIcESt4hashIcENS_18_Mod_range_hashingENS_20_Default_ranged_hashENS_20_Prime_rehash_policyENS_17_Hashtable_traitsILb0ELb1ELb1EEEE6insertERKc,"axG",@progbits,_ZNSt8__detail12_Insert_baseIccSaIcENS_9_IdentityESt8equal_toIcESt4hashIcENS_18_Mod_range_hashingENS_20_Default_ranged_hashENS_20_Prime_rehash_policyENS_17_Hashtable_traitsILb0ELb1ELb1EEEE6insertERKc,comdat
	.weak	_ZNSt8__detail12_Insert_baseIccSaIcENS_9_IdentityESt8equal_toIcESt4hashIcENS_18_Mod_range_hashingENS_20_Default_ranged_hashENS_20_Prime_rehash_policyENS_17_Hashtable_traitsILb0ELb1ELb1EEEE6insertERKc # -- Begin function _ZNSt8__detail12_Insert_baseIccSaIcENS_9_IdentityESt8equal_toIcESt4hashIcENS_18_Mod_range_hashingENS_20_Default_ranged_hashENS_20_Prime_rehash_policyENS_17_Hashtable_traitsILb0ELb1ELb1EEEE6insertERKc
	.p2align	4, 0x90
	.type	_ZNSt8__detail12_Insert_baseIccSaIcENS_9_IdentityESt8equal_toIcESt4hashIcENS_18_Mod_range_hashingENS_20_Default_ranged_hashENS_20_Prime_rehash_policyENS_17_Hashtable_traitsILb0ELb1ELb1EEEE6insertERKc,@function
_ZNSt8__detail12_Insert_baseIccSaIcENS_9_IdentityESt8equal_toIcESt4hashIcENS_18_Mod_range_hashingENS_20_Default_ranged_hashENS_20_Prime_rehash_policyENS_17_Hashtable_traitsILb0ELb1ELb1EEEE6insertERKc: # @_ZNSt8__detail12_Insert_baseIccSaIcENS_9_IdentityESt8equal_toIcESt4hashIcENS_18_Mod_range_hashingENS_20_Default_ranged_hashENS_20_Prime_rehash_policyENS_17_Hashtable_traitsILb0ELb1ELb1EEEE6insertERKc
	.cfi_startproc
# %bb.0:
	pushq	%rbp
	.cfi_def_cfa_offset 16
	.cfi_offset %rbp, -16
	movq	%rsp, %rbp
	.cfi_def_cfa_register %rbp
	subq	$64, %rsp
	movq	%rdi, -24(%rbp)
	movq	%rsi, -32(%rbp)
	movq	-24(%rbp), %rdi
	callq	_ZNSt8__detail12_Insert_baseIccSaIcENS_9_IdentityESt8equal_toIcESt4hashIcENS_18_Mod_range_hashingENS_20_Default_ranged_hashENS_20_Prime_rehash_policyENS_17_Hashtable_traitsILb0ELb1ELb1EEEE20_M_conjure_hashtableEv
	movq	%rax, -40(%rbp)
	movq	-40(%rbp), %rsi
	leaq	-48(%rbp), %rax
	movq	%rax, %rdi
	movq	%rax, -64(%rbp)         # 8-byte Spill
	callq	_ZNSt8__detail10_AllocNodeISaINS_10_Hash_nodeIcLb0EEEEEC2ERNS_16_Hashtable_allocIS3_EE
	movq	-40(%rbp), %rdi
	movq	-32(%rbp), %rsi
	movq	-64(%rbp), %rdx         # 8-byte Reload
	callq	_ZNSt10_HashtableIccSaIcENSt8__detail9_IdentityESt8equal_toIcESt4hashIcENS1_18_Mod_range_hashingENS1_20_Default_ranged_hashENS1_20_Prime_rehash_policyENS1_17_Hashtable_traitsILb0ELb1ELb1EEEE9_M_insertIRKcNS1_10_AllocNodeISaINS1_10_Hash_nodeIcLb0EEEEEEEESt4pairINS1_14_Node_iteratorIcLb1ELb0EEEbEOT_RKT0_St17integral_constantIbLb1EE
	movq	%rax, -16(%rbp)
	movb	%dl, -8(%rbp)
	movq	-16(%rbp), %rax
	movb	-8(%rbp), %dl
	addq	$64, %rsp
	popq	%rbp
	retq
.Lfunc_end15:
	.size	_ZNSt8__detail12_Insert_baseIccSaIcENS_9_IdentityESt8equal_toIcESt4hashIcENS_18_Mod_range_hashingENS_20_Default_ranged_hashENS_20_Prime_rehash_policyENS_17_Hashtable_traitsILb0ELb1ELb1EEEE6insertERKc, .Lfunc_end15-_ZNSt8__detail12_Insert_baseIccSaIcENS_9_IdentityESt8equal_toIcESt4hashIcENS_18_Mod_range_hashingENS_20_Default_ranged_hashENS_20_Prime_rehash_policyENS_17_Hashtable_traitsILb0ELb1ELb1EEEE6insertERKc
	.cfi_endproc
                                        # -- End function
	.section	.text._ZNSt8__detail12_Insert_baseIccSaIcENS_9_IdentityESt8equal_toIcESt4hashIcENS_18_Mod_range_hashingENS_20_Default_ranged_hashENS_20_Prime_rehash_policyENS_17_Hashtable_traitsILb0ELb1ELb1EEEE20_M_conjure_hashtableEv,"axG",@progbits,_ZNSt8__detail12_Insert_baseIccSaIcENS_9_IdentityESt8equal_toIcESt4hashIcENS_18_Mod_range_hashingENS_20_Default_ranged_hashENS_20_Prime_rehash_policyENS_17_Hashtable_traitsILb0ELb1ELb1EEEE20_M_conjure_hashtableEv,comdat
	.weak	_ZNSt8__detail12_Insert_baseIccSaIcENS_9_IdentityESt8equal_toIcESt4hashIcENS_18_Mod_range_hashingENS_20_Default_ranged_hashENS_20_Prime_rehash_policyENS_17_Hashtable_traitsILb0ELb1ELb1EEEE20_M_conjure_hashtableEv # -- Begin function _ZNSt8__detail12_Insert_baseIccSaIcENS_9_IdentityESt8equal_toIcESt4hashIcENS_18_Mod_range_hashingENS_20_Default_ranged_hashENS_20_Prime_rehash_policyENS_17_Hashtable_traitsILb0ELb1ELb1EEEE20_M_conjure_hashtableEv
	.p2align	4, 0x90
	.type	_ZNSt8__detail12_Insert_baseIccSaIcENS_9_IdentityESt8equal_toIcESt4hashIcENS_18_Mod_range_hashingENS_20_Default_ranged_hashENS_20_Prime_rehash_policyENS_17_Hashtable_traitsILb0ELb1ELb1EEEE20_M_conjure_hashtableEv,@function
_ZNSt8__detail12_Insert_baseIccSaIcENS_9_IdentityESt8equal_toIcESt4hashIcENS_18_Mod_range_hashingENS_20_Default_ranged_hashENS_20_Prime_rehash_policyENS_17_Hashtable_traitsILb0ELb1ELb1EEEE20_M_conjure_hashtableEv: # @_ZNSt8__detail12_Insert_baseIccSaIcENS_9_IdentityESt8equal_toIcESt4hashIcENS_18_Mod_range_hashingENS_20_Default_ranged_hashENS_20_Prime_rehash_policyENS_17_Hashtable_traitsILb0ELb1ELb1EEEE20_M_conjure_hashtableEv
	.cfi_startproc
# %bb.0:
	pushq	%rbp
	.cfi_def_cfa_offset 16
	.cfi_offset %rbp, -16
	movq	%rsp, %rbp
	.cfi_def_cfa_register %rbp
	movq	%rdi, -8(%rbp)
	movq	-8(%rbp), %rdi
	movq	%rdi, %rax
	popq	%rbp
	retq
.Lfunc_end16:
	.size	_ZNSt8__detail12_Insert_baseIccSaIcENS_9_IdentityESt8equal_toIcESt4hashIcENS_18_Mod_range_hashingENS_20_Default_ranged_hashENS_20_Prime_rehash_policyENS_17_Hashtable_traitsILb0ELb1ELb1EEEE20_M_conjure_hashtableEv, .Lfunc_end16-_ZNSt8__detail12_Insert_baseIccSaIcENS_9_IdentityESt8equal_toIcESt4hashIcENS_18_Mod_range_hashingENS_20_Default_ranged_hashENS_20_Prime_rehash_policyENS_17_Hashtable_traitsILb0ELb1ELb1EEEE20_M_conjure_hashtableEv
	.cfi_endproc
                                        # -- End function
	.section	.text._ZNSt8__detail10_AllocNodeISaINS_10_Hash_nodeIcLb0EEEEEC2ERNS_16_Hashtable_allocIS3_EE,"axG",@progbits,_ZNSt8__detail10_AllocNodeISaINS_10_Hash_nodeIcLb0EEEEEC2ERNS_16_Hashtable_allocIS3_EE,comdat
	.weak	_ZNSt8__detail10_AllocNodeISaINS_10_Hash_nodeIcLb0EEEEEC2ERNS_16_Hashtable_allocIS3_EE # -- Begin function _ZNSt8__detail10_AllocNodeISaINS_10_Hash_nodeIcLb0EEEEEC2ERNS_16_Hashtable_allocIS3_EE
	.p2align	4, 0x90
	.type	_ZNSt8__detail10_AllocNodeISaINS_10_Hash_nodeIcLb0EEEEEC2ERNS_16_Hashtable_allocIS3_EE,@function
_ZNSt8__detail10_AllocNodeISaINS_10_Hash_nodeIcLb0EEEEEC2ERNS_16_Hashtable_allocIS3_EE: # @_ZNSt8__detail10_AllocNodeISaINS_10_Hash_nodeIcLb0EEEEEC2ERNS_16_Hashtable_allocIS3_EE
	.cfi_startproc
# %bb.0:
	pushq	%rbp
	.cfi_def_cfa_offset 16
	.cfi_offset %rbp, -16
	movq	%rsp, %rbp
	.cfi_def_cfa_register %rbp
	movq	%rdi, -8(%rbp)
	movq	%rsi, -16(%rbp)
	movq	-8(%rbp), %rsi
	movq	-16(%rbp), %rdi
	movq	%rdi, (%rsi)
	popq	%rbp
	retq
.Lfunc_end17:
	.size	_ZNSt8__detail10_AllocNodeISaINS_10_Hash_nodeIcLb0EEEEEC2ERNS_16_Hashtable_allocIS3_EE, .Lfunc_end17-_ZNSt8__detail10_AllocNodeISaINS_10_Hash_nodeIcLb0EEEEEC2ERNS_16_Hashtable_allocIS3_EE
	.cfi_endproc
                                        # -- End function
	.section	.text._ZNSt10_HashtableIccSaIcENSt8__detail9_IdentityESt8equal_toIcESt4hashIcENS1_18_Mod_range_hashingENS1_20_Default_ranged_hashENS1_20_Prime_rehash_policyENS1_17_Hashtable_traitsILb0ELb1ELb1EEEE9_M_insertIRKcNS1_10_AllocNodeISaINS1_10_Hash_nodeIcLb0EEEEEEEESt4pairINS1_14_Node_iteratorIcLb1ELb0EEEbEOT_RKT0_St17integral_constantIbLb1EE,"axG",@progbits,_ZNSt10_HashtableIccSaIcENSt8__detail9_IdentityESt8equal_toIcESt4hashIcENS1_18_Mod_range_hashingENS1_20_Default_ranged_hashENS1_20_Prime_rehash_policyENS1_17_Hashtable_traitsILb0ELb1ELb1EEEE9_M_insertIRKcNS1_10_AllocNodeISaINS1_10_Hash_nodeIcLb0EEEEEEEESt4pairINS1_14_Node_iteratorIcLb1ELb0EEEbEOT_RKT0_St17integral_constantIbLb1EE,comdat
	.weak	_ZNSt10_HashtableIccSaIcENSt8__detail9_IdentityESt8equal_toIcESt4hashIcENS1_18_Mod_range_hashingENS1_20_Default_ranged_hashENS1_20_Prime_rehash_policyENS1_17_Hashtable_traitsILb0ELb1ELb1EEEE9_M_insertIRKcNS1_10_AllocNodeISaINS1_10_Hash_nodeIcLb0EEEEEEEESt4pairINS1_14_Node_iteratorIcLb1ELb0EEEbEOT_RKT0_St17integral_constantIbLb1EE # -- Begin function _ZNSt10_HashtableIccSaIcENSt8__detail9_IdentityESt8equal_toIcESt4hashIcENS1_18_Mod_range_hashingENS1_20_Default_ranged_hashENS1_20_Prime_rehash_policyENS1_17_Hashtable_traitsILb0ELb1ELb1EEEE9_M_insertIRKcNS1_10_AllocNodeISaINS1_10_Hash_nodeIcLb0EEEEEEEESt4pairINS1_14_Node_iteratorIcLb1ELb0EEEbEOT_RKT0_St17integral_constantIbLb1EE
	.p2align	4, 0x90
	.type	_ZNSt10_HashtableIccSaIcENSt8__detail9_IdentityESt8equal_toIcESt4hashIcENS1_18_Mod_range_hashingENS1_20_Default_ranged_hashENS1_20_Prime_rehash_policyENS1_17_Hashtable_traitsILb0ELb1ELb1EEEE9_M_insertIRKcNS1_10_AllocNodeISaINS1_10_Hash_nodeIcLb0EEEEEEEESt4pairINS1_14_Node_iteratorIcLb1ELb0EEEbEOT_RKT0_St17integral_constantIbLb1EE,@function
_ZNSt10_HashtableIccSaIcENSt8__detail9_IdentityESt8equal_toIcESt4hashIcENS1_18_Mod_range_hashingENS1_20_Default_ranged_hashENS1_20_Prime_rehash_policyENS1_17_Hashtable_traitsILb0ELb1ELb1EEEE9_M_insertIRKcNS1_10_AllocNodeISaINS1_10_Hash_nodeIcLb0EEEEEEEESt4pairINS1_14_Node_iteratorIcLb1ELb0EEEbEOT_RKT0_St17integral_constantIbLb1EE: # @_ZNSt10_HashtableIccSaIcENSt8__detail9_IdentityESt8equal_toIcESt4hashIcENS1_18_Mod_range_hashingENS1_20_Default_ranged_hashENS1_20_Prime_rehash_policyENS1_17_Hashtable_traitsILb0ELb1ELb1EEEE9_M_insertIRKcNS1_10_AllocNodeISaINS1_10_Hash_nodeIcLb0EEEEEEEESt4pairINS1_14_Node_iteratorIcLb1ELb0EEEbEOT_RKT0_St17integral_constantIbLb1EE
	.cfi_startproc
# %bb.0:
	pushq	%rbp
	.cfi_def_cfa_offset 16
	.cfi_offset %rbp, -16
	movq	%rsp, %rbp
	.cfi_def_cfa_register %rbp
	subq	$128, %rsp
	movq	%rdi, -32(%rbp)
	movq	%rsi, -40(%rbp)
	movq	%rdx, -48(%rbp)
	movq	-32(%rbp), %rdx
	movq	%rdx, %rsi
	movq	%rsi, %rdi
	movq	%rdx, -120(%rbp)        # 8-byte Spill
	callq	_ZNSt8__detail15_Hash_code_baseIccNS_9_IdentityESt4hashIcENS_18_Mod_range_hashingENS_20_Default_ranged_hashELb0EE10_M_extractEv
	movq	-40(%rbp), %rsi
	movq	%rax, %rdi
	callq	_ZNKSt8__detail9_IdentityclIRKcEEOT_S5_
	movq	%rax, -56(%rbp)
	movq	-120(%rbp), %rax        # 8-byte Reload
	movq	-56(%rbp), %rsi
	movq	%rax, %rdi
	callq	_ZNKSt8__detail15_Hash_code_baseIccNS_9_IdentityESt4hashIcENS_18_Mod_range_hashingENS_20_Default_ranged_hashELb0EE12_M_hash_codeERKc
	movq	%rax, -64(%rbp)
	movq	-56(%rbp), %rsi
	movq	-64(%rbp), %rdx
	movq	-120(%rbp), %rdi        # 8-byte Reload
	callq	_ZNKSt10_HashtableIccSaIcENSt8__detail9_IdentityESt8equal_toIcESt4hashIcENS1_18_Mod_range_hashingENS1_20_Default_ranged_hashENS1_20_Prime_rehash_policyENS1_17_Hashtable_traitsILb0ELb1ELb1EEEE15_M_bucket_indexERKcm
	movq	%rax, -72(%rbp)
	movq	-72(%rbp), %rsi
	movq	-56(%rbp), %rdx
	movq	-64(%rbp), %rcx
	movq	-120(%rbp), %rdi        # 8-byte Reload
	callq	_ZNKSt10_HashtableIccSaIcENSt8__detail9_IdentityESt8equal_toIcESt4hashIcENS1_18_Mod_range_hashingENS1_20_Default_ranged_hashENS1_20_Prime_rehash_policyENS1_17_Hashtable_traitsILb0ELb1ELb1EEEE12_M_find_nodeEmRKcm
	movq	%rax, -80(%rbp)
	cmpq	$0, -80(%rbp)
	je	.LBB18_2
# %bb.1:
	leaq	-88(%rbp), %rdi
	movq	-80(%rbp), %rsi
	callq	_ZNSt8__detail14_Node_iteratorIcLb1ELb0EEC2EPNS_10_Hash_nodeIcLb0EEE
	leaq	-88(%rbp), %rdi
	leaq	-89(%rbp), %rsi
	movb	$0, -89(%rbp)
	callq	_ZSt9make_pairINSt8__detail14_Node_iteratorIcLb1ELb0EEEbESt4pairINSt17__decay_and_stripIT_E6__typeENS4_IT0_E6__typeEEOS5_OS8_
	movq	%rax, -16(%rbp)
	movb	%dl, -8(%rbp)
	jmp	.LBB18_3
.LBB18_2:
	movq	-48(%rbp), %rdi
	movq	-40(%rbp), %rax
	movq	%rdi, -128(%rbp)        # 8-byte Spill
	movq	%rax, %rdi
	callq	_ZSt7forwardIRKcEOT_RNSt16remove_referenceIS2_E4typeE
	movq	-128(%rbp), %rdi        # 8-byte Reload
	movq	%rax, %rsi
	callq	_ZNKSt8__detail10_AllocNodeISaINS_10_Hash_nodeIcLb0EEEEEclIRKcEEPS2_OT_
	movq	%rax, -80(%rbp)
	movq	-72(%rbp), %rsi
	movq	-64(%rbp), %rdx
	movq	-80(%rbp), %rcx
	movq	-120(%rbp), %rdi        # 8-byte Reload
	callq	_ZNSt10_HashtableIccSaIcENSt8__detail9_IdentityESt8equal_toIcESt4hashIcENS1_18_Mod_range_hashingENS1_20_Default_ranged_hashENS1_20_Prime_rehash_policyENS1_17_Hashtable_traitsILb0ELb1ELb1EEEE21_M_insert_unique_nodeEmmPNS1_10_Hash_nodeIcLb0EEE
	leaq	-104(%rbp), %rdi
	leaq	-105(%rbp), %rsi
	movq	%rax, -104(%rbp)
	movb	$1, -105(%rbp)
	callq	_ZSt9make_pairINSt8__detail14_Node_iteratorIcLb1ELb0EEEbESt4pairINSt17__decay_and_stripIT_E6__typeENS4_IT0_E6__typeEEOS5_OS8_
	movq	%rax, -16(%rbp)
	movb	%dl, -8(%rbp)
.LBB18_3:
	movq	-16(%rbp), %rax
	movb	-8(%rbp), %dl
	addq	$128, %rsp
	popq	%rbp
	retq
.Lfunc_end18:
	.size	_ZNSt10_HashtableIccSaIcENSt8__detail9_IdentityESt8equal_toIcESt4hashIcENS1_18_Mod_range_hashingENS1_20_Default_ranged_hashENS1_20_Prime_rehash_policyENS1_17_Hashtable_traitsILb0ELb1ELb1EEEE9_M_insertIRKcNS1_10_AllocNodeISaINS1_10_Hash_nodeIcLb0EEEEEEEESt4pairINS1_14_Node_iteratorIcLb1ELb0EEEbEOT_RKT0_St17integral_constantIbLb1EE, .Lfunc_end18-_ZNSt10_HashtableIccSaIcENSt8__detail9_IdentityESt8equal_toIcESt4hashIcENS1_18_Mod_range_hashingENS1_20_Default_ranged_hashENS1_20_Prime_rehash_policyENS1_17_Hashtable_traitsILb0ELb1ELb1EEEE9_M_insertIRKcNS1_10_AllocNodeISaINS1_10_Hash_nodeIcLb0EEEEEEEESt4pairINS1_14_Node_iteratorIcLb1ELb0EEEbEOT_RKT0_St17integral_constantIbLb1EE
	.cfi_endproc
                                        # -- End function
	.section	.text._ZNSt8__detail15_Hash_code_baseIccNS_9_IdentityESt4hashIcENS_18_Mod_range_hashingENS_20_Default_ranged_hashELb0EE10_M_extractEv,"axG",@progbits,_ZNSt8__detail15_Hash_code_baseIccNS_9_IdentityESt4hashIcENS_18_Mod_range_hashingENS_20_Default_ranged_hashELb0EE10_M_extractEv,comdat
	.weak	_ZNSt8__detail15_Hash_code_baseIccNS_9_IdentityESt4hashIcENS_18_Mod_range_hashingENS_20_Default_ranged_hashELb0EE10_M_extractEv # -- Begin function _ZNSt8__detail15_Hash_code_baseIccNS_9_IdentityESt4hashIcENS_18_Mod_range_hashingENS_20_Default_ranged_hashELb0EE10_M_extractEv
	.p2align	4, 0x90
	.type	_ZNSt8__detail15_Hash_code_baseIccNS_9_IdentityESt4hashIcENS_18_Mod_range_hashingENS_20_Default_ranged_hashELb0EE10_M_extractEv,@function
_ZNSt8__detail15_Hash_code_baseIccNS_9_IdentityESt4hashIcENS_18_Mod_range_hashingENS_20_Default_ranged_hashELb0EE10_M_extractEv: # @_ZNSt8__detail15_Hash_code_baseIccNS_9_IdentityESt4hashIcENS_18_Mod_range_hashingENS_20_Default_ranged_hashELb0EE10_M_extractEv
	.cfi_startproc
# %bb.0:
	pushq	%rbp
	.cfi_def_cfa_offset 16
	.cfi_offset %rbp, -16
	movq	%rsp, %rbp
	.cfi_def_cfa_register %rbp
	subq	$16, %rsp
	movq	%rdi, -8(%rbp)
	movq	-8(%rbp), %rdi
	callq	_ZNSt8__detail21_Hashtable_ebo_helperILi0ENS_9_IdentityELb1EE6_S_getERS2_
	addq	$16, %rsp
	popq	%rbp
	retq
.Lfunc_end19:
	.size	_ZNSt8__detail15_Hash_code_baseIccNS_9_IdentityESt4hashIcENS_18_Mod_range_hashingENS_20_Default_ranged_hashELb0EE10_M_extractEv, .Lfunc_end19-_ZNSt8__detail15_Hash_code_baseIccNS_9_IdentityESt4hashIcENS_18_Mod_range_hashingENS_20_Default_ranged_hashELb0EE10_M_extractEv
	.cfi_endproc
                                        # -- End function
	.section	.text._ZNKSt8__detail9_IdentityclIRKcEEOT_S5_,"axG",@progbits,_ZNKSt8__detail9_IdentityclIRKcEEOT_S5_,comdat
	.weak	_ZNKSt8__detail9_IdentityclIRKcEEOT_S5_ # -- Begin function _ZNKSt8__detail9_IdentityclIRKcEEOT_S5_
	.p2align	4, 0x90
	.type	_ZNKSt8__detail9_IdentityclIRKcEEOT_S5_,@function
_ZNKSt8__detail9_IdentityclIRKcEEOT_S5_: # @_ZNKSt8__detail9_IdentityclIRKcEEOT_S5_
	.cfi_startproc
# %bb.0:
	pushq	%rbp
	.cfi_def_cfa_offset 16
	.cfi_offset %rbp, -16
	movq	%rsp, %rbp
	.cfi_def_cfa_register %rbp
	subq	$16, %rsp
	movq	%rdi, -8(%rbp)
	movq	%rsi, -16(%rbp)
	movq	-16(%rbp), %rdi
	callq	_ZSt7forwardIRKcEOT_RNSt16remove_referenceIS2_E4typeE
	addq	$16, %rsp
	popq	%rbp
	retq
.Lfunc_end20:
	.size	_ZNKSt8__detail9_IdentityclIRKcEEOT_S5_, .Lfunc_end20-_ZNKSt8__detail9_IdentityclIRKcEEOT_S5_
	.cfi_endproc
                                        # -- End function
	.section	.text._ZNKSt8__detail15_Hash_code_baseIccNS_9_IdentityESt4hashIcENS_18_Mod_range_hashingENS_20_Default_ranged_hashELb0EE12_M_hash_codeERKc,"axG",@progbits,_ZNKSt8__detail15_Hash_code_baseIccNS_9_IdentityESt4hashIcENS_18_Mod_range_hashingENS_20_Default_ranged_hashELb0EE12_M_hash_codeERKc,comdat
	.weak	_ZNKSt8__detail15_Hash_code_baseIccNS_9_IdentityESt4hashIcENS_18_Mod_range_hashingENS_20_Default_ranged_hashELb0EE12_M_hash_codeERKc # -- Begin function _ZNKSt8__detail15_Hash_code_baseIccNS_9_IdentityESt4hashIcENS_18_Mod_range_hashingENS_20_Default_ranged_hashELb0EE12_M_hash_codeERKc
	.p2align	4, 0x90
	.type	_ZNKSt8__detail15_Hash_code_baseIccNS_9_IdentityESt4hashIcENS_18_Mod_range_hashingENS_20_Default_ranged_hashELb0EE12_M_hash_codeERKc,@function
_ZNKSt8__detail15_Hash_code_baseIccNS_9_IdentityESt4hashIcENS_18_Mod_range_hashingENS_20_Default_ranged_hashELb0EE12_M_hash_codeERKc: # @_ZNKSt8__detail15_Hash_code_baseIccNS_9_IdentityESt4hashIcENS_18_Mod_range_hashingENS_20_Default_ranged_hashELb0EE12_M_hash_codeERKc
	.cfi_startproc
# %bb.0:
	pushq	%rbp
	.cfi_def_cfa_offset 16
	.cfi_offset %rbp, -16
	movq	%rsp, %rbp
	.cfi_def_cfa_register %rbp
	subq	$16, %rsp
	movq	%rdi, -8(%rbp)
	movq	%rsi, -16(%rbp)
	movq	-8(%rbp), %rdi
	callq	_ZNKSt8__detail15_Hash_code_baseIccNS_9_IdentityESt4hashIcENS_18_Mod_range_hashingENS_20_Default_ranged_hashELb0EE5_M_h1Ev
	movq	-16(%rbp), %rsi
	movq	%rax, %rdi
	movsbl	(%rsi), %esi
	callq	_ZNKSt4hashIcEclEc
	addq	$16, %rsp
	popq	%rbp
	retq
.Lfunc_end21:
	.size	_ZNKSt8__detail15_Hash_code_baseIccNS_9_IdentityESt4hashIcENS_18_Mod_range_hashingENS_20_Default_ranged_hashELb0EE12_M_hash_codeERKc, .Lfunc_end21-_ZNKSt8__detail15_Hash_code_baseIccNS_9_IdentityESt4hashIcENS_18_Mod_range_hashingENS_20_Default_ranged_hashELb0EE12_M_hash_codeERKc
	.cfi_endproc
                                        # -- End function
	.section	.text._ZNKSt10_HashtableIccSaIcENSt8__detail9_IdentityESt8equal_toIcESt4hashIcENS1_18_Mod_range_hashingENS1_20_Default_ranged_hashENS1_20_Prime_rehash_policyENS1_17_Hashtable_traitsILb0ELb1ELb1EEEE15_M_bucket_indexERKcm,"axG",@progbits,_ZNKSt10_HashtableIccSaIcENSt8__detail9_IdentityESt8equal_toIcESt4hashIcENS1_18_Mod_range_hashingENS1_20_Default_ranged_hashENS1_20_Prime_rehash_policyENS1_17_Hashtable_traitsILb0ELb1ELb1EEEE15_M_bucket_indexERKcm,comdat
	.weak	_ZNKSt10_HashtableIccSaIcENSt8__detail9_IdentityESt8equal_toIcESt4hashIcENS1_18_Mod_range_hashingENS1_20_Default_ranged_hashENS1_20_Prime_rehash_policyENS1_17_Hashtable_traitsILb0ELb1ELb1EEEE15_M_bucket_indexERKcm # -- Begin function _ZNKSt10_HashtableIccSaIcENSt8__detail9_IdentityESt8equal_toIcESt4hashIcENS1_18_Mod_range_hashingENS1_20_Default_ranged_hashENS1_20_Prime_rehash_policyENS1_17_Hashtable_traitsILb0ELb1ELb1EEEE15_M_bucket_indexERKcm
	.p2align	4, 0x90
	.type	_ZNKSt10_HashtableIccSaIcENSt8__detail9_IdentityESt8equal_toIcESt4hashIcENS1_18_Mod_range_hashingENS1_20_Default_ranged_hashENS1_20_Prime_rehash_policyENS1_17_Hashtable_traitsILb0ELb1ELb1EEEE15_M_bucket_indexERKcm,@function
_ZNKSt10_HashtableIccSaIcENSt8__detail9_IdentityESt8equal_toIcESt4hashIcENS1_18_Mod_range_hashingENS1_20_Default_ranged_hashENS1_20_Prime_rehash_policyENS1_17_Hashtable_traitsILb0ELb1ELb1EEEE15_M_bucket_indexERKcm: # @_ZNKSt10_HashtableIccSaIcENSt8__detail9_IdentityESt8equal_toIcESt4hashIcENS1_18_Mod_range_hashingENS1_20_Default_ranged_hashENS1_20_Prime_rehash_policyENS1_17_Hashtable_traitsILb0ELb1ELb1EEEE15_M_bucket_indexERKcm
	.cfi_startproc
# %bb.0:
	pushq	%rbp
	.cfi_def_cfa_offset 16
	.cfi_offset %rbp, -16
	movq	%rsp, %rbp
	.cfi_def_cfa_register %rbp
	subq	$32, %rsp
	movq	%rdi, -8(%rbp)
	movq	%rsi, -16(%rbp)
	movq	%rdx, -24(%rbp)
	movq	-8(%rbp), %rdx
	movq	%rdx, %rsi
	movq	-16(%rbp), %rdi
	movq	-24(%rbp), %rax
	movq	8(%rdx), %rcx
	movq	%rdi, -32(%rbp)         # 8-byte Spill
	movq	%rsi, %rdi
	movq	-32(%rbp), %rsi         # 8-byte Reload
	movq	%rax, %rdx
	callq	_ZNKSt8__detail15_Hash_code_baseIccNS_9_IdentityESt4hashIcENS_18_Mod_range_hashingENS_20_Default_ranged_hashELb0EE15_M_bucket_indexERKcmm
	addq	$32, %rsp
	popq	%rbp
	retq
.Lfunc_end22:
	.size	_ZNKSt10_HashtableIccSaIcENSt8__detail9_IdentityESt8equal_toIcESt4hashIcENS1_18_Mod_range_hashingENS1_20_Default_ranged_hashENS1_20_Prime_rehash_policyENS1_17_Hashtable_traitsILb0ELb1ELb1EEEE15_M_bucket_indexERKcm, .Lfunc_end22-_ZNKSt10_HashtableIccSaIcENSt8__detail9_IdentityESt8equal_toIcESt4hashIcENS1_18_Mod_range_hashingENS1_20_Default_ranged_hashENS1_20_Prime_rehash_policyENS1_17_Hashtable_traitsILb0ELb1ELb1EEEE15_M_bucket_indexERKcm
	.cfi_endproc
                                        # -- End function
	.section	.text._ZNKSt10_HashtableIccSaIcENSt8__detail9_IdentityESt8equal_toIcESt4hashIcENS1_18_Mod_range_hashingENS1_20_Default_ranged_hashENS1_20_Prime_rehash_policyENS1_17_Hashtable_traitsILb0ELb1ELb1EEEE12_M_find_nodeEmRKcm,"axG",@progbits,_ZNKSt10_HashtableIccSaIcENSt8__detail9_IdentityESt8equal_toIcESt4hashIcENS1_18_Mod_range_hashingENS1_20_Default_ranged_hashENS1_20_Prime_rehash_policyENS1_17_Hashtable_traitsILb0ELb1ELb1EEEE12_M_find_nodeEmRKcm,comdat
	.weak	_ZNKSt10_HashtableIccSaIcENSt8__detail9_IdentityESt8equal_toIcESt4hashIcENS1_18_Mod_range_hashingENS1_20_Default_ranged_hashENS1_20_Prime_rehash_policyENS1_17_Hashtable_traitsILb0ELb1ELb1EEEE12_M_find_nodeEmRKcm # -- Begin function _ZNKSt10_HashtableIccSaIcENSt8__detail9_IdentityESt8equal_toIcESt4hashIcENS1_18_Mod_range_hashingENS1_20_Default_ranged_hashENS1_20_Prime_rehash_policyENS1_17_Hashtable_traitsILb0ELb1ELb1EEEE12_M_find_nodeEmRKcm
	.p2align	4, 0x90
	.type	_ZNKSt10_HashtableIccSaIcENSt8__detail9_IdentityESt8equal_toIcESt4hashIcENS1_18_Mod_range_hashingENS1_20_Default_ranged_hashENS1_20_Prime_rehash_policyENS1_17_Hashtable_traitsILb0ELb1ELb1EEEE12_M_find_nodeEmRKcm,@function
_ZNKSt10_HashtableIccSaIcENSt8__detail9_IdentityESt8equal_toIcESt4hashIcENS1_18_Mod_range_hashingENS1_20_Default_ranged_hashENS1_20_Prime_rehash_policyENS1_17_Hashtable_traitsILb0ELb1ELb1EEEE12_M_find_nodeEmRKcm: # @_ZNKSt10_HashtableIccSaIcENSt8__detail9_IdentityESt8equal_toIcESt4hashIcENS1_18_Mod_range_hashingENS1_20_Default_ranged_hashENS1_20_Prime_rehash_policyENS1_17_Hashtable_traitsILb0ELb1ELb1EEEE12_M_find_nodeEmRKcm
	.cfi_startproc
# %bb.0:
	pushq	%rbp
	.cfi_def_cfa_offset 16
	.cfi_offset %rbp, -16
	movq	%rsp, %rbp
	.cfi_def_cfa_register %rbp
	subq	$48, %rsp
	movq	%rdi, -16(%rbp)
	movq	%rsi, -24(%rbp)
	movq	%rdx, -32(%rbp)
	movq	%rcx, -40(%rbp)
	movq	-16(%rbp), %rdi
	movq	-24(%rbp), %rsi
	movq	-32(%rbp), %rdx
	movq	-40(%rbp), %rcx
	callq	_ZNKSt10_HashtableIccSaIcENSt8__detail9_IdentityESt8equal_toIcESt4hashIcENS1_18_Mod_range_hashingENS1_20_Default_ranged_hashENS1_20_Prime_rehash_policyENS1_17_Hashtable_traitsILb0ELb1ELb1EEEE19_M_find_before_nodeEmRKcm
	movq	%rax, -48(%rbp)
	cmpq	$0, -48(%rbp)
	je	.LBB23_2
# %bb.1:
	movq	-48(%rbp), %rax
	movq	(%rax), %rax
	movq	%rax, -8(%rbp)
	jmp	.LBB23_3
.LBB23_2:
	movq	$0, -8(%rbp)
.LBB23_3:
	movq	-8(%rbp), %rax
	addq	$48, %rsp
	popq	%rbp
	retq
.Lfunc_end23:
	.size	_ZNKSt10_HashtableIccSaIcENSt8__detail9_IdentityESt8equal_toIcESt4hashIcENS1_18_Mod_range_hashingENS1_20_Default_ranged_hashENS1_20_Prime_rehash_policyENS1_17_Hashtable_traitsILb0ELb1ELb1EEEE12_M_find_nodeEmRKcm, .Lfunc_end23-_ZNKSt10_HashtableIccSaIcENSt8__detail9_IdentityESt8equal_toIcESt4hashIcENS1_18_Mod_range_hashingENS1_20_Default_ranged_hashENS1_20_Prime_rehash_policyENS1_17_Hashtable_traitsILb0ELb1ELb1EEEE12_M_find_nodeEmRKcm
	.cfi_endproc
                                        # -- End function
	.section	.text._ZSt9make_pairINSt8__detail14_Node_iteratorIcLb1ELb0EEEbESt4pairINSt17__decay_and_stripIT_E6__typeENS4_IT0_E6__typeEEOS5_OS8_,"axG",@progbits,_ZSt9make_pairINSt8__detail14_Node_iteratorIcLb1ELb0EEEbESt4pairINSt17__decay_and_stripIT_E6__typeENS4_IT0_E6__typeEEOS5_OS8_,comdat
	.weak	_ZSt9make_pairINSt8__detail14_Node_iteratorIcLb1ELb0EEEbESt4pairINSt17__decay_and_stripIT_E6__typeENS4_IT0_E6__typeEEOS5_OS8_ # -- Begin function _ZSt9make_pairINSt8__detail14_Node_iteratorIcLb1ELb0EEEbESt4pairINSt17__decay_and_stripIT_E6__typeENS4_IT0_E6__typeEEOS5_OS8_
	.p2align	4, 0x90
	.type	_ZSt9make_pairINSt8__detail14_Node_iteratorIcLb1ELb0EEEbESt4pairINSt17__decay_and_stripIT_E6__typeENS4_IT0_E6__typeEEOS5_OS8_,@function
_ZSt9make_pairINSt8__detail14_Node_iteratorIcLb1ELb0EEEbESt4pairINSt17__decay_and_stripIT_E6__typeENS4_IT0_E6__typeEEOS5_OS8_: # @_ZSt9make_pairINSt8__detail14_Node_iteratorIcLb1ELb0EEEbESt4pairINSt17__decay_and_stripIT_E6__typeENS4_IT0_E6__typeEEOS5_OS8_
	.cfi_startproc
# %bb.0:
	pushq	%rbp
	.cfi_def_cfa_offset 16
	.cfi_offset %rbp, -16
	movq	%rsp, %rbp
	.cfi_def_cfa_register %rbp
	subq	$48, %rsp
	movq	%rdi, -24(%rbp)
	movq	%rsi, -32(%rbp)
	movq	-24(%rbp), %rdi
	callq	_ZSt7forwardINSt8__detail14_Node_iteratorIcLb1ELb0EEEEOT_RNSt16remove_referenceIS3_E4typeE
	movq	-32(%rbp), %rdi
	movq	%rax, -40(%rbp)         # 8-byte Spill
	callq	_ZSt7forwardIbEOT_RNSt16remove_referenceIS0_E4typeE
	leaq	-16(%rbp), %rdi
	movq	-40(%rbp), %rsi         # 8-byte Reload
	movq	%rax, %rdx
	callq	_ZNSt4pairINSt8__detail14_Node_iteratorIcLb1ELb0EEEbEC2IS2_bLb1EEEOT_OT0_
	movq	-16(%rbp), %rax
	movb	-8(%rbp), %dl
	addq	$48, %rsp
	popq	%rbp
	retq
.Lfunc_end24:
	.size	_ZSt9make_pairINSt8__detail14_Node_iteratorIcLb1ELb0EEEbESt4pairINSt17__decay_and_stripIT_E6__typeENS4_IT0_E6__typeEEOS5_OS8_, .Lfunc_end24-_ZSt9make_pairINSt8__detail14_Node_iteratorIcLb1ELb0EEEbESt4pairINSt17__decay_and_stripIT_E6__typeENS4_IT0_E6__typeEEOS5_OS8_
	.cfi_endproc
                                        # -- End function
	.section	.text._ZNSt8__detail14_Node_iteratorIcLb1ELb0EEC2EPNS_10_Hash_nodeIcLb0EEE,"axG",@progbits,_ZNSt8__detail14_Node_iteratorIcLb1ELb0EEC2EPNS_10_Hash_nodeIcLb0EEE,comdat
	.weak	_ZNSt8__detail14_Node_iteratorIcLb1ELb0EEC2EPNS_10_Hash_nodeIcLb0EEE # -- Begin function _ZNSt8__detail14_Node_iteratorIcLb1ELb0EEC2EPNS_10_Hash_nodeIcLb0EEE
	.p2align	4, 0x90
	.type	_ZNSt8__detail14_Node_iteratorIcLb1ELb0EEC2EPNS_10_Hash_nodeIcLb0EEE,@function
_ZNSt8__detail14_Node_iteratorIcLb1ELb0EEC2EPNS_10_Hash_nodeIcLb0EEE: # @_ZNSt8__detail14_Node_iteratorIcLb1ELb0EEC2EPNS_10_Hash_nodeIcLb0EEE
	.cfi_startproc
# %bb.0:
	pushq	%rbp
	.cfi_def_cfa_offset 16
	.cfi_offset %rbp, -16
	movq	%rsp, %rbp
	.cfi_def_cfa_register %rbp
	subq	$32, %rsp
	movq	%rdi, -8(%rbp)
	movq	%rsi, -16(%rbp)
	movq	-8(%rbp), %rsi
	movq	-16(%rbp), %rdi
	movq	%rdi, -24(%rbp)         # 8-byte Spill
	movq	%rsi, %rdi
	movq	-24(%rbp), %rsi         # 8-byte Reload
	callq	_ZNSt8__detail19_Node_iterator_baseIcLb0EEC2EPNS_10_Hash_nodeIcLb0EEE
	addq	$32, %rsp
	popq	%rbp
	retq
.Lfunc_end25:
	.size	_ZNSt8__detail14_Node_iteratorIcLb1ELb0EEC2EPNS_10_Hash_nodeIcLb0EEE, .Lfunc_end25-_ZNSt8__detail14_Node_iteratorIcLb1ELb0EEC2EPNS_10_Hash_nodeIcLb0EEE
	.cfi_endproc
                                        # -- End function
	.section	.text._ZNKSt8__detail10_AllocNodeISaINS_10_Hash_nodeIcLb0EEEEEclIRKcEEPS2_OT_,"axG",@progbits,_ZNKSt8__detail10_AllocNodeISaINS_10_Hash_nodeIcLb0EEEEEclIRKcEEPS2_OT_,comdat
	.weak	_ZNKSt8__detail10_AllocNodeISaINS_10_Hash_nodeIcLb0EEEEEclIRKcEEPS2_OT_ # -- Begin function _ZNKSt8__detail10_AllocNodeISaINS_10_Hash_nodeIcLb0EEEEEclIRKcEEPS2_OT_
	.p2align	4, 0x90
	.type	_ZNKSt8__detail10_AllocNodeISaINS_10_Hash_nodeIcLb0EEEEEclIRKcEEPS2_OT_,@function
_ZNKSt8__detail10_AllocNodeISaINS_10_Hash_nodeIcLb0EEEEEclIRKcEEPS2_OT_: # @_ZNKSt8__detail10_AllocNodeISaINS_10_Hash_nodeIcLb0EEEEEclIRKcEEPS2_OT_
	.cfi_startproc
# %bb.0:
	pushq	%rbp
	.cfi_def_cfa_offset 16
	.cfi_offset %rbp, -16
	movq	%rsp, %rbp
	.cfi_def_cfa_register %rbp
	subq	$32, %rsp
	movq	%rdi, -8(%rbp)
	movq	%rsi, -16(%rbp)
	movq	-8(%rbp), %rsi
	movq	(%rsi), %rdi
	movq	-16(%rbp), %rsi
	movq	%rdi, -24(%rbp)         # 8-byte Spill
	movq	%rsi, %rdi
	callq	_ZSt7forwardIRKcEOT_RNSt16remove_referenceIS2_E4typeE
	movq	-24(%rbp), %rdi         # 8-byte Reload
	movq	%rax, %rsi
	callq	_ZNSt8__detail16_Hashtable_allocISaINS_10_Hash_nodeIcLb0EEEEE16_M_allocate_nodeIJRKcEEEPS2_DpOT_
	addq	$32, %rsp
	popq	%rbp
	retq
.Lfunc_end26:
	.size	_ZNKSt8__detail10_AllocNodeISaINS_10_Hash_nodeIcLb0EEEEEclIRKcEEPS2_OT_, .Lfunc_end26-_ZNKSt8__detail10_AllocNodeISaINS_10_Hash_nodeIcLb0EEEEEclIRKcEEPS2_OT_
	.cfi_endproc
                                        # -- End function
	.section	.text._ZSt7forwardIRKcEOT_RNSt16remove_referenceIS2_E4typeE,"axG",@progbits,_ZSt7forwardIRKcEOT_RNSt16remove_referenceIS2_E4typeE,comdat
	.weak	_ZSt7forwardIRKcEOT_RNSt16remove_referenceIS2_E4typeE # -- Begin function _ZSt7forwardIRKcEOT_RNSt16remove_referenceIS2_E4typeE
	.p2align	4, 0x90
	.type	_ZSt7forwardIRKcEOT_RNSt16remove_referenceIS2_E4typeE,@function
_ZSt7forwardIRKcEOT_RNSt16remove_referenceIS2_E4typeE: # @_ZSt7forwardIRKcEOT_RNSt16remove_referenceIS2_E4typeE
	.cfi_startproc
# %bb.0:
	pushq	%rbp
	.cfi_def_cfa_offset 16
	.cfi_offset %rbp, -16
	movq	%rsp, %rbp
	.cfi_def_cfa_register %rbp
	movq	%rdi, -8(%rbp)
	movq	-8(%rbp), %rax
	popq	%rbp
	retq
.Lfunc_end27:
	.size	_ZSt7forwardIRKcEOT_RNSt16remove_referenceIS2_E4typeE, .Lfunc_end27-_ZSt7forwardIRKcEOT_RNSt16remove_referenceIS2_E4typeE
	.cfi_endproc
                                        # -- End function
	.section	.text._ZNSt10_HashtableIccSaIcENSt8__detail9_IdentityESt8equal_toIcESt4hashIcENS1_18_Mod_range_hashingENS1_20_Default_ranged_hashENS1_20_Prime_rehash_policyENS1_17_Hashtable_traitsILb0ELb1ELb1EEEE21_M_insert_unique_nodeEmmPNS1_10_Hash_nodeIcLb0EEE,"axG",@progbits,_ZNSt10_HashtableIccSaIcENSt8__detail9_IdentityESt8equal_toIcESt4hashIcENS1_18_Mod_range_hashingENS1_20_Default_ranged_hashENS1_20_Prime_rehash_policyENS1_17_Hashtable_traitsILb0ELb1ELb1EEEE21_M_insert_unique_nodeEmmPNS1_10_Hash_nodeIcLb0EEE,comdat
	.weak	_ZNSt10_HashtableIccSaIcENSt8__detail9_IdentityESt8equal_toIcESt4hashIcENS1_18_Mod_range_hashingENS1_20_Default_ranged_hashENS1_20_Prime_rehash_policyENS1_17_Hashtable_traitsILb0ELb1ELb1EEEE21_M_insert_unique_nodeEmmPNS1_10_Hash_nodeIcLb0EEE # -- Begin function _ZNSt10_HashtableIccSaIcENSt8__detail9_IdentityESt8equal_toIcESt4hashIcENS1_18_Mod_range_hashingENS1_20_Default_ranged_hashENS1_20_Prime_rehash_policyENS1_17_Hashtable_traitsILb0ELb1ELb1EEEE21_M_insert_unique_nodeEmmPNS1_10_Hash_nodeIcLb0EEE
	.p2align	4, 0x90
	.type	_ZNSt10_HashtableIccSaIcENSt8__detail9_IdentityESt8equal_toIcESt4hashIcENS1_18_Mod_range_hashingENS1_20_Default_ranged_hashENS1_20_Prime_rehash_policyENS1_17_Hashtable_traitsILb0ELb1ELb1EEEE21_M_insert_unique_nodeEmmPNS1_10_Hash_nodeIcLb0EEE,@function
_ZNSt10_HashtableIccSaIcENSt8__detail9_IdentityESt8equal_toIcESt4hashIcENS1_18_Mod_range_hashingENS1_20_Default_ranged_hashENS1_20_Prime_rehash_policyENS1_17_Hashtable_traitsILb0ELb1ELb1EEEE21_M_insert_unique_nodeEmmPNS1_10_Hash_nodeIcLb0EEE: # @_ZNSt10_HashtableIccSaIcENSt8__detail9_IdentityESt8equal_toIcESt4hashIcENS1_18_Mod_range_hashingENS1_20_Default_ranged_hashENS1_20_Prime_rehash_policyENS1_17_Hashtable_traitsILb0ELb1ELb1EEEE21_M_insert_unique_nodeEmmPNS1_10_Hash_nodeIcLb0EEE
.Lfunc_begin2:
	.cfi_startproc
	.cfi_personality 3, __gxx_personality_v0
	.cfi_lsda 3, .Lexception2
# %bb.0:
	pushq	%rbp
	.cfi_def_cfa_offset 16
	.cfi_offset %rbp, -16
	movq	%rsp, %rbp
	.cfi_def_cfa_register %rbp
	subq	$144, %rsp
	movq	%rdi, -16(%rbp)
	movq	%rsi, -24(%rbp)
	movq	%rdx, -32(%rbp)
	movq	%rcx, -40(%rbp)
	movq	-16(%rbp), %rcx
	movq	%rcx, %rdx
	addq	$32, %rdx
	movq	%rdx, %rdi
	movq	%rcx, -96(%rbp)         # 8-byte Spill
	callq	_ZNKSt8__detail20_Prime_rehash_policy8_M_stateEv
	movl	$1, %r8d
	movl	%r8d, %ecx
	leaq	-56(%rbp), %rdx
	movq	%rax, -56(%rbp)
	movq	%rdx, -48(%rbp)
	movq	-96(%rbp), %rax         # 8-byte Reload
	addq	$32, %rax
	movq	-96(%rbp), %rdx         # 8-byte Reload
	movq	8(%rdx), %rsi
	movq	24(%rdx), %rdx
	movq	%rax, %rdi
	callq	_ZNKSt8__detail20_Prime_rehash_policy14_M_need_rehashEmmm
	movb	%al, -72(%rbp)
	movq	%rdx, -64(%rbp)
	testb	$1, -72(%rbp)
	je	.LBB28_9
# %bb.1:
	movq	-64(%rbp), %rsi
	movq	-48(%rbp), %rdx
.Ltmp21:
	movq	-96(%rbp), %rdi         # 8-byte Reload
	callq	_ZNSt10_HashtableIccSaIcENSt8__detail9_IdentityESt8equal_toIcESt4hashIcENS1_18_Mod_range_hashingENS1_20_Default_ranged_hashENS1_20_Prime_rehash_policyENS1_17_Hashtable_traitsILb0ELb1ELb1EEEE9_M_rehashEmRKm
.Ltmp22:
	jmp	.LBB28_2
.LBB28_2:
.Ltmp23:
	movq	-96(%rbp), %rdi         # 8-byte Reload
	callq	_ZNSt8__detail15_Hash_code_baseIccNS_9_IdentityESt4hashIcENS_18_Mod_range_hashingENS_20_Default_ranged_hashELb0EE10_M_extractEv
.Ltmp24:
	movq	%rax, -104(%rbp)        # 8-byte Spill
	jmp	.LBB28_3
.LBB28_3:
	movq	-40(%rbp), %rdi
	callq	_ZNSt8__detail21_Hash_node_value_baseIcE4_M_vEv
.Ltmp25:
	movq	-104(%rbp), %rdi        # 8-byte Reload
	movq	%rax, %rsi
	callq	_ZNKSt8__detail9_IdentityclIRcEEOT_S4_
.Ltmp26:
	movq	%rax, -112(%rbp)        # 8-byte Spill
	jmp	.LBB28_4
.LBB28_4:
	movq	-32(%rbp), %rdx
.Ltmp27:
	movq	-96(%rbp), %rdi         # 8-byte Reload
	movq	-112(%rbp), %rsi        # 8-byte Reload
	callq	_ZNKSt10_HashtableIccSaIcENSt8__detail9_IdentityESt8equal_toIcESt4hashIcENS1_18_Mod_range_hashingENS1_20_Default_ranged_hashENS1_20_Prime_rehash_policyENS1_17_Hashtable_traitsILb0ELb1ELb1EEEE15_M_bucket_indexERKcm
.Ltmp28:
	movq	%rax, -120(%rbp)        # 8-byte Spill
	jmp	.LBB28_5
.LBB28_5:
	movq	-120(%rbp), %rax        # 8-byte Reload
	movq	%rax, -24(%rbp)
	jmp	.LBB28_9
.LBB28_6:
.Ltmp33:
	movl	%edx, %ecx
	movq	%rax, -80(%rbp)
	movl	%ecx, -84(%rbp)
# %bb.7:
	movq	-80(%rbp), %rdi
	callq	__cxa_begin_catch
	movq	-40(%rbp), %rsi
.Ltmp34:
	movq	-96(%rbp), %rdi         # 8-byte Reload
	movq	%rax, -128(%rbp)        # 8-byte Spill
	callq	_ZNSt8__detail16_Hashtable_allocISaINS_10_Hash_nodeIcLb0EEEEE18_M_deallocate_nodeEPS2_
.Ltmp35:
	jmp	.LBB28_8
.LBB28_8:
.Ltmp36:
	callq	__cxa_rethrow
.Ltmp37:
	jmp	.LBB28_16
.LBB28_9:
	movq	-40(%rbp), %rsi
	movq	-32(%rbp), %rdx
.Ltmp29:
	movq	-96(%rbp), %rdi         # 8-byte Reload
	callq	_ZNKSt8__detail15_Hash_code_baseIccNS_9_IdentityESt4hashIcENS_18_Mod_range_hashingENS_20_Default_ranged_hashELb0EE13_M_store_codeEPNS_10_Hash_nodeIcLb0EEEm
.Ltmp30:
	jmp	.LBB28_10
.LBB28_10:
	movq	-24(%rbp), %rsi
	movq	-40(%rbp), %rdx
.Ltmp31:
	movq	-96(%rbp), %rdi         # 8-byte Reload
	callq	_ZNSt10_HashtableIccSaIcENSt8__detail9_IdentityESt8equal_toIcESt4hashIcENS1_18_Mod_range_hashingENS1_20_Default_ranged_hashENS1_20_Prime_rehash_policyENS1_17_Hashtable_traitsILb0ELb1ELb1EEEE22_M_insert_bucket_beginEmPNS1_10_Hash_nodeIcLb0EEE
.Ltmp32:
	jmp	.LBB28_11
.LBB28_11:
	leaq	-8(%rbp), %rdi
	movq	-96(%rbp), %rax         # 8-byte Reload
	movq	24(%rax), %rcx
	addq	$1, %rcx
	movq	%rcx, 24(%rax)
	movq	-40(%rbp), %rsi
	callq	_ZNSt8__detail14_Node_iteratorIcLb1ELb0EEC2EPNS_10_Hash_nodeIcLb0EEE
	movq	-8(%rbp), %rax
	addq	$144, %rsp
	popq	%rbp
	retq
.LBB28_12:
.Ltmp38:
	movl	%edx, %ecx
	movq	%rax, -80(%rbp)
	movl	%ecx, -84(%rbp)
.Ltmp39:
	callq	__cxa_end_catch
.Ltmp40:
	jmp	.LBB28_13
.LBB28_13:
	jmp	.LBB28_14
.LBB28_14:
	movq	-80(%rbp), %rdi
	callq	_Unwind_Resume
.LBB28_15:
.Ltmp41:
	movl	%edx, %ecx
	movq	%rax, %rdi
	movl	%ecx, -132(%rbp)        # 4-byte Spill
	callq	__clang_call_terminate
.LBB28_16:
.Lfunc_end28:
	.size	_ZNSt10_HashtableIccSaIcENSt8__detail9_IdentityESt8equal_toIcESt4hashIcENS1_18_Mod_range_hashingENS1_20_Default_ranged_hashENS1_20_Prime_rehash_policyENS1_17_Hashtable_traitsILb0ELb1ELb1EEEE21_M_insert_unique_nodeEmmPNS1_10_Hash_nodeIcLb0EEE, .Lfunc_end28-_ZNSt10_HashtableIccSaIcENSt8__detail9_IdentityESt8equal_toIcESt4hashIcENS1_18_Mod_range_hashingENS1_20_Default_ranged_hashENS1_20_Prime_rehash_policyENS1_17_Hashtable_traitsILb0ELb1ELb1EEEE21_M_insert_unique_nodeEmmPNS1_10_Hash_nodeIcLb0EEE
	.cfi_endproc
	.section	.gcc_except_table,"a",@progbits
	.p2align	2
GCC_except_table28:
.Lexception2:
	.byte	255                     # @LPStart Encoding = omit
	.byte	3                       # @TType Encoding = udata4
	.asciz	"\343\200"              # @TType base offset
	.byte	3                       # Call site Encoding = udata4
	.byte	91                      # Call site table length
	.long	.Lfunc_begin2-.Lfunc_begin2 # >> Call Site 1 <<
	.long	.Ltmp21-.Lfunc_begin2   #   Call between .Lfunc_begin2 and .Ltmp21
	.long	0                       #     has no landing pad
	.byte	0                       #   On action: cleanup
	.long	.Ltmp21-.Lfunc_begin2   # >> Call Site 2 <<
	.long	.Ltmp28-.Ltmp21         #   Call between .Ltmp21 and .Ltmp28
	.long	.Ltmp33-.Lfunc_begin2   #     jumps to .Ltmp33
	.byte	1                       #   On action: 1
	.long	.Ltmp28-.Lfunc_begin2   # >> Call Site 3 <<
	.long	.Ltmp34-.Ltmp28         #   Call between .Ltmp28 and .Ltmp34
	.long	0                       #     has no landing pad
	.byte	0                       #   On action: cleanup
	.long	.Ltmp34-.Lfunc_begin2   # >> Call Site 4 <<
	.long	.Ltmp37-.Ltmp34         #   Call between .Ltmp34 and .Ltmp37
	.long	.Ltmp38-.Lfunc_begin2   #     jumps to .Ltmp38
	.byte	0                       #   On action: cleanup
	.long	.Ltmp29-.Lfunc_begin2   # >> Call Site 5 <<
	.long	.Ltmp32-.Ltmp29         #   Call between .Ltmp29 and .Ltmp32
	.long	.Ltmp33-.Lfunc_begin2   #     jumps to .Ltmp33
	.byte	1                       #   On action: 1
	.long	.Ltmp39-.Lfunc_begin2   # >> Call Site 6 <<
	.long	.Ltmp40-.Ltmp39         #   Call between .Ltmp39 and .Ltmp40
	.long	.Ltmp41-.Lfunc_begin2   #     jumps to .Ltmp41
	.byte	1                       #   On action: 1
	.long	.Ltmp40-.Lfunc_begin2   # >> Call Site 7 <<
	.long	.Lfunc_end28-.Ltmp40    #   Call between .Ltmp40 and .Lfunc_end28
	.long	0                       #     has no landing pad
	.byte	0                       #   On action: cleanup
	.byte	1                       # >> Action Record 1 <<
                                        #   Catch TypeInfo 1
	.byte	0                       #   No further actions
                                        # >> Catch TypeInfos <<
	.long	0                       # TypeInfo 1
	.p2align	2
                                        # -- End function
	.section	.text._ZNSt8__detail21_Hashtable_ebo_helperILi0ENS_9_IdentityELb1EE6_S_getERS2_,"axG",@progbits,_ZNSt8__detail21_Hashtable_ebo_helperILi0ENS_9_IdentityELb1EE6_S_getERS2_,comdat
	.weak	_ZNSt8__detail21_Hashtable_ebo_helperILi0ENS_9_IdentityELb1EE6_S_getERS2_ # -- Begin function _ZNSt8__detail21_Hashtable_ebo_helperILi0ENS_9_IdentityELb1EE6_S_getERS2_
	.p2align	4, 0x90
	.type	_ZNSt8__detail21_Hashtable_ebo_helperILi0ENS_9_IdentityELb1EE6_S_getERS2_,@function
_ZNSt8__detail21_Hashtable_ebo_helperILi0ENS_9_IdentityELb1EE6_S_getERS2_: # @_ZNSt8__detail21_Hashtable_ebo_helperILi0ENS_9_IdentityELb1EE6_S_getERS2_
	.cfi_startproc
# %bb.0:
	pushq	%rbp
	.cfi_def_cfa_offset 16
	.cfi_offset %rbp, -16
	movq	%rsp, %rbp
	.cfi_def_cfa_register %rbp
	movq	%rdi, -8(%rbp)
	movq	-8(%rbp), %rdi
	movq	%rdi, %rax
	popq	%rbp
	retq
.Lfunc_end29:
	.size	_ZNSt8__detail21_Hashtable_ebo_helperILi0ENS_9_IdentityELb1EE6_S_getERS2_, .Lfunc_end29-_ZNSt8__detail21_Hashtable_ebo_helperILi0ENS_9_IdentityELb1EE6_S_getERS2_
	.cfi_endproc
                                        # -- End function
	.section	.text._ZNKSt8__detail15_Hash_code_baseIccNS_9_IdentityESt4hashIcENS_18_Mod_range_hashingENS_20_Default_ranged_hashELb0EE5_M_h1Ev,"axG",@progbits,_ZNKSt8__detail15_Hash_code_baseIccNS_9_IdentityESt4hashIcENS_18_Mod_range_hashingENS_20_Default_ranged_hashELb0EE5_M_h1Ev,comdat
	.weak	_ZNKSt8__detail15_Hash_code_baseIccNS_9_IdentityESt4hashIcENS_18_Mod_range_hashingENS_20_Default_ranged_hashELb0EE5_M_h1Ev # -- Begin function _ZNKSt8__detail15_Hash_code_baseIccNS_9_IdentityESt4hashIcENS_18_Mod_range_hashingENS_20_Default_ranged_hashELb0EE5_M_h1Ev
	.p2align	4, 0x90
	.type	_ZNKSt8__detail15_Hash_code_baseIccNS_9_IdentityESt4hashIcENS_18_Mod_range_hashingENS_20_Default_ranged_hashELb0EE5_M_h1Ev,@function
_ZNKSt8__detail15_Hash_code_baseIccNS_9_IdentityESt4hashIcENS_18_Mod_range_hashingENS_20_Default_ranged_hashELb0EE5_M_h1Ev: # @_ZNKSt8__detail15_Hash_code_baseIccNS_9_IdentityESt4hashIcENS_18_Mod_range_hashingENS_20_Default_ranged_hashELb0EE5_M_h1Ev
	.cfi_startproc
# %bb.0:
	pushq	%rbp
	.cfi_def_cfa_offset 16
	.cfi_offset %rbp, -16
	movq	%rsp, %rbp
	.cfi_def_cfa_register %rbp
	subq	$16, %rsp
	movq	%rdi, -8(%rbp)
	movq	-8(%rbp), %rdi
	callq	_ZNSt8__detail21_Hashtable_ebo_helperILi1ESt4hashIcELb1EE7_S_cgetERKS3_
	addq	$16, %rsp
	popq	%rbp
	retq
.Lfunc_end30:
	.size	_ZNKSt8__detail15_Hash_code_baseIccNS_9_IdentityESt4hashIcENS_18_Mod_range_hashingENS_20_Default_ranged_hashELb0EE5_M_h1Ev, .Lfunc_end30-_ZNKSt8__detail15_Hash_code_baseIccNS_9_IdentityESt4hashIcENS_18_Mod_range_hashingENS_20_Default_ranged_hashELb0EE5_M_h1Ev
	.cfi_endproc
                                        # -- End function
	.section	.text._ZNKSt4hashIcEclEc,"axG",@progbits,_ZNKSt4hashIcEclEc,comdat
	.weak	_ZNKSt4hashIcEclEc      # -- Begin function _ZNKSt4hashIcEclEc
	.p2align	4, 0x90
	.type	_ZNKSt4hashIcEclEc,@function
_ZNKSt4hashIcEclEc:                     # @_ZNKSt4hashIcEclEc
	.cfi_startproc
# %bb.0:
	pushq	%rbp
	.cfi_def_cfa_offset 16
	.cfi_offset %rbp, -16
	movq	%rsp, %rbp
	.cfi_def_cfa_register %rbp
	movb	%sil, %al
	movq	%rdi, -8(%rbp)
	movb	%al, -9(%rbp)
	movsbq	-9(%rbp), %rax
	popq	%rbp
	retq
.Lfunc_end31:
	.size	_ZNKSt4hashIcEclEc, .Lfunc_end31-_ZNKSt4hashIcEclEc
	.cfi_endproc
                                        # -- End function
	.section	.text._ZNSt8__detail21_Hashtable_ebo_helperILi1ESt4hashIcELb1EE7_S_cgetERKS3_,"axG",@progbits,_ZNSt8__detail21_Hashtable_ebo_helperILi1ESt4hashIcELb1EE7_S_cgetERKS3_,comdat
	.weak	_ZNSt8__detail21_Hashtable_ebo_helperILi1ESt4hashIcELb1EE7_S_cgetERKS3_ # -- Begin function _ZNSt8__detail21_Hashtable_ebo_helperILi1ESt4hashIcELb1EE7_S_cgetERKS3_
	.p2align	4, 0x90
	.type	_ZNSt8__detail21_Hashtable_ebo_helperILi1ESt4hashIcELb1EE7_S_cgetERKS3_,@function
_ZNSt8__detail21_Hashtable_ebo_helperILi1ESt4hashIcELb1EE7_S_cgetERKS3_: # @_ZNSt8__detail21_Hashtable_ebo_helperILi1ESt4hashIcELb1EE7_S_cgetERKS3_
	.cfi_startproc
# %bb.0:
	pushq	%rbp
	.cfi_def_cfa_offset 16
	.cfi_offset %rbp, -16
	movq	%rsp, %rbp
	.cfi_def_cfa_register %rbp
	movq	%rdi, -8(%rbp)
	movq	-8(%rbp), %rdi
	movq	%rdi, %rax
	popq	%rbp
	retq
.Lfunc_end32:
	.size	_ZNSt8__detail21_Hashtable_ebo_helperILi1ESt4hashIcELb1EE7_S_cgetERKS3_, .Lfunc_end32-_ZNSt8__detail21_Hashtable_ebo_helperILi1ESt4hashIcELb1EE7_S_cgetERKS3_
	.cfi_endproc
                                        # -- End function
	.section	.text._ZNKSt8__detail15_Hash_code_baseIccNS_9_IdentityESt4hashIcENS_18_Mod_range_hashingENS_20_Default_ranged_hashELb0EE15_M_bucket_indexERKcmm,"axG",@progbits,_ZNKSt8__detail15_Hash_code_baseIccNS_9_IdentityESt4hashIcENS_18_Mod_range_hashingENS_20_Default_ranged_hashELb0EE15_M_bucket_indexERKcmm,comdat
	.weak	_ZNKSt8__detail15_Hash_code_baseIccNS_9_IdentityESt4hashIcENS_18_Mod_range_hashingENS_20_Default_ranged_hashELb0EE15_M_bucket_indexERKcmm # -- Begin function _ZNKSt8__detail15_Hash_code_baseIccNS_9_IdentityESt4hashIcENS_18_Mod_range_hashingENS_20_Default_ranged_hashELb0EE15_M_bucket_indexERKcmm
	.p2align	4, 0x90
	.type	_ZNKSt8__detail15_Hash_code_baseIccNS_9_IdentityESt4hashIcENS_18_Mod_range_hashingENS_20_Default_ranged_hashELb0EE15_M_bucket_indexERKcmm,@function
_ZNKSt8__detail15_Hash_code_baseIccNS_9_IdentityESt4hashIcENS_18_Mod_range_hashingENS_20_Default_ranged_hashELb0EE15_M_bucket_indexERKcmm: # @_ZNKSt8__detail15_Hash_code_baseIccNS_9_IdentityESt4hashIcENS_18_Mod_range_hashingENS_20_Default_ranged_hashELb0EE15_M_bucket_indexERKcmm
	.cfi_startproc
# %bb.0:
	pushq	%rbp
	.cfi_def_cfa_offset 16
	.cfi_offset %rbp, -16
	movq	%rsp, %rbp
	.cfi_def_cfa_register %rbp
	subq	$32, %rsp
	movq	%rdi, -8(%rbp)
	movq	%rsi, -16(%rbp)
	movq	%rdx, -24(%rbp)
	movq	%rcx, -32(%rbp)
	movq	-8(%rbp), %rdi
	callq	_ZNKSt8__detail15_Hash_code_baseIccNS_9_IdentityESt4hashIcENS_18_Mod_range_hashingENS_20_Default_ranged_hashELb0EE5_M_h2Ev
	movq	-24(%rbp), %rsi
	movq	-32(%rbp), %rdx
	movq	%rax, %rdi
	callq	_ZNKSt8__detail18_Mod_range_hashingclEmm
	addq	$32, %rsp
	popq	%rbp
	retq
.Lfunc_end33:
	.size	_ZNKSt8__detail15_Hash_code_baseIccNS_9_IdentityESt4hashIcENS_18_Mod_range_hashingENS_20_Default_ranged_hashELb0EE15_M_bucket_indexERKcmm, .Lfunc_end33-_ZNKSt8__detail15_Hash_code_baseIccNS_9_IdentityESt4hashIcENS_18_Mod_range_hashingENS_20_Default_ranged_hashELb0EE15_M_bucket_indexERKcmm
	.cfi_endproc
                                        # -- End function
	.section	.text._ZNKSt8__detail15_Hash_code_baseIccNS_9_IdentityESt4hashIcENS_18_Mod_range_hashingENS_20_Default_ranged_hashELb0EE5_M_h2Ev,"axG",@progbits,_ZNKSt8__detail15_Hash_code_baseIccNS_9_IdentityESt4hashIcENS_18_Mod_range_hashingENS_20_Default_ranged_hashELb0EE5_M_h2Ev,comdat
	.weak	_ZNKSt8__detail15_Hash_code_baseIccNS_9_IdentityESt4hashIcENS_18_Mod_range_hashingENS_20_Default_ranged_hashELb0EE5_M_h2Ev # -- Begin function _ZNKSt8__detail15_Hash_code_baseIccNS_9_IdentityESt4hashIcENS_18_Mod_range_hashingENS_20_Default_ranged_hashELb0EE5_M_h2Ev
	.p2align	4, 0x90
	.type	_ZNKSt8__detail15_Hash_code_baseIccNS_9_IdentityESt4hashIcENS_18_Mod_range_hashingENS_20_Default_ranged_hashELb0EE5_M_h2Ev,@function
_ZNKSt8__detail15_Hash_code_baseIccNS_9_IdentityESt4hashIcENS_18_Mod_range_hashingENS_20_Default_ranged_hashELb0EE5_M_h2Ev: # @_ZNKSt8__detail15_Hash_code_baseIccNS_9_IdentityESt4hashIcENS_18_Mod_range_hashingENS_20_Default_ranged_hashELb0EE5_M_h2Ev
	.cfi_startproc
# %bb.0:
	pushq	%rbp
	.cfi_def_cfa_offset 16
	.cfi_offset %rbp, -16
	movq	%rsp, %rbp
	.cfi_def_cfa_register %rbp
	subq	$16, %rsp
	movq	%rdi, -8(%rbp)
	movq	-8(%rbp), %rdi
	callq	_ZNSt8__detail21_Hashtable_ebo_helperILi2ENS_18_Mod_range_hashingELb1EE7_S_cgetERKS2_
	addq	$16, %rsp
	popq	%rbp
	retq
.Lfunc_end34:
	.size	_ZNKSt8__detail15_Hash_code_baseIccNS_9_IdentityESt4hashIcENS_18_Mod_range_hashingENS_20_Default_ranged_hashELb0EE5_M_h2Ev, .Lfunc_end34-_ZNKSt8__detail15_Hash_code_baseIccNS_9_IdentityESt4hashIcENS_18_Mod_range_hashingENS_20_Default_ranged_hashELb0EE5_M_h2Ev
	.cfi_endproc
                                        # -- End function
	.section	.text._ZNKSt8__detail18_Mod_range_hashingclEmm,"axG",@progbits,_ZNKSt8__detail18_Mod_range_hashingclEmm,comdat
	.weak	_ZNKSt8__detail18_Mod_range_hashingclEmm # -- Begin function _ZNKSt8__detail18_Mod_range_hashingclEmm
	.p2align	4, 0x90
	.type	_ZNKSt8__detail18_Mod_range_hashingclEmm,@function
_ZNKSt8__detail18_Mod_range_hashingclEmm: # @_ZNKSt8__detail18_Mod_range_hashingclEmm
	.cfi_startproc
# %bb.0:
	pushq	%rbp
	.cfi_def_cfa_offset 16
	.cfi_offset %rbp, -16
	movq	%rsp, %rbp
	.cfi_def_cfa_register %rbp
	movq	%rdi, -8(%rbp)
	movq	%rsi, -16(%rbp)
	movq	%rdx, -24(%rbp)
	movq	-16(%rbp), %rax
	xorl	%ecx, %ecx
	movl	%ecx, %edx
	divq	-24(%rbp)
	movq	%rdx, %rax
	popq	%rbp
	retq
.Lfunc_end35:
	.size	_ZNKSt8__detail18_Mod_range_hashingclEmm, .Lfunc_end35-_ZNKSt8__detail18_Mod_range_hashingclEmm
	.cfi_endproc
                                        # -- End function
	.section	.text._ZNSt8__detail21_Hashtable_ebo_helperILi2ENS_18_Mod_range_hashingELb1EE7_S_cgetERKS2_,"axG",@progbits,_ZNSt8__detail21_Hashtable_ebo_helperILi2ENS_18_Mod_range_hashingELb1EE7_S_cgetERKS2_,comdat
	.weak	_ZNSt8__detail21_Hashtable_ebo_helperILi2ENS_18_Mod_range_hashingELb1EE7_S_cgetERKS2_ # -- Begin function _ZNSt8__detail21_Hashtable_ebo_helperILi2ENS_18_Mod_range_hashingELb1EE7_S_cgetERKS2_
	.p2align	4, 0x90
	.type	_ZNSt8__detail21_Hashtable_ebo_helperILi2ENS_18_Mod_range_hashingELb1EE7_S_cgetERKS2_,@function
_ZNSt8__detail21_Hashtable_ebo_helperILi2ENS_18_Mod_range_hashingELb1EE7_S_cgetERKS2_: # @_ZNSt8__detail21_Hashtable_ebo_helperILi2ENS_18_Mod_range_hashingELb1EE7_S_cgetERKS2_
	.cfi_startproc
# %bb.0:
	pushq	%rbp
	.cfi_def_cfa_offset 16
	.cfi_offset %rbp, -16
	movq	%rsp, %rbp
	.cfi_def_cfa_register %rbp
	movq	%rdi, -8(%rbp)
	movq	-8(%rbp), %rdi
	movq	%rdi, %rax
	popq	%rbp
	retq
.Lfunc_end36:
	.size	_ZNSt8__detail21_Hashtable_ebo_helperILi2ENS_18_Mod_range_hashingELb1EE7_S_cgetERKS2_, .Lfunc_end36-_ZNSt8__detail21_Hashtable_ebo_helperILi2ENS_18_Mod_range_hashingELb1EE7_S_cgetERKS2_
	.cfi_endproc
                                        # -- End function
	.section	.text._ZNKSt10_HashtableIccSaIcENSt8__detail9_IdentityESt8equal_toIcESt4hashIcENS1_18_Mod_range_hashingENS1_20_Default_ranged_hashENS1_20_Prime_rehash_policyENS1_17_Hashtable_traitsILb0ELb1ELb1EEEE19_M_find_before_nodeEmRKcm,"axG",@progbits,_ZNKSt10_HashtableIccSaIcENSt8__detail9_IdentityESt8equal_toIcESt4hashIcENS1_18_Mod_range_hashingENS1_20_Default_ranged_hashENS1_20_Prime_rehash_policyENS1_17_Hashtable_traitsILb0ELb1ELb1EEEE19_M_find_before_nodeEmRKcm,comdat
	.weak	_ZNKSt10_HashtableIccSaIcENSt8__detail9_IdentityESt8equal_toIcESt4hashIcENS1_18_Mod_range_hashingENS1_20_Default_ranged_hashENS1_20_Prime_rehash_policyENS1_17_Hashtable_traitsILb0ELb1ELb1EEEE19_M_find_before_nodeEmRKcm # -- Begin function _ZNKSt10_HashtableIccSaIcENSt8__detail9_IdentityESt8equal_toIcESt4hashIcENS1_18_Mod_range_hashingENS1_20_Default_ranged_hashENS1_20_Prime_rehash_policyENS1_17_Hashtable_traitsILb0ELb1ELb1EEEE19_M_find_before_nodeEmRKcm
	.p2align	4, 0x90
	.type	_ZNKSt10_HashtableIccSaIcENSt8__detail9_IdentityESt8equal_toIcESt4hashIcENS1_18_Mod_range_hashingENS1_20_Default_ranged_hashENS1_20_Prime_rehash_policyENS1_17_Hashtable_traitsILb0ELb1ELb1EEEE19_M_find_before_nodeEmRKcm,@function
_ZNKSt10_HashtableIccSaIcENSt8__detail9_IdentityESt8equal_toIcESt4hashIcENS1_18_Mod_range_hashingENS1_20_Default_ranged_hashENS1_20_Prime_rehash_policyENS1_17_Hashtable_traitsILb0ELb1ELb1EEEE19_M_find_before_nodeEmRKcm: # @_ZNKSt10_HashtableIccSaIcENSt8__detail9_IdentityESt8equal_toIcESt4hashIcENS1_18_Mod_range_hashingENS1_20_Default_ranged_hashENS1_20_Prime_rehash_policyENS1_17_Hashtable_traitsILb0ELb1ELb1EEEE19_M_find_before_nodeEmRKcm
	.cfi_startproc
# %bb.0:
	pushq	%rbp
	.cfi_def_cfa_offset 16
	.cfi_offset %rbp, -16
	movq	%rsp, %rbp
	.cfi_def_cfa_register %rbp
	subq	$64, %rsp
	movq	%rdi, -16(%rbp)
	movq	%rsi, -24(%rbp)
	movq	%rdx, -32(%rbp)
	movq	%rcx, -40(%rbp)
	movq	-16(%rbp), %rcx
	movq	(%rcx), %rdx
	movq	-24(%rbp), %rsi
	movq	(%rdx,%rsi,8), %rdx
	movq	%rdx, -48(%rbp)
	cmpq	$0, -48(%rbp)
	movq	%rcx, -64(%rbp)         # 8-byte Spill
	jne	.LBB37_2
# %bb.1:
	movq	$0, -8(%rbp)
	jmp	.LBB37_11
.LBB37_2:
	movq	-48(%rbp), %rax
	movq	(%rax), %rax
	movq	%rax, -56(%rbp)
.LBB37_3:                               # =>This Inner Loop Header: Depth=1
	movq	-64(%rbp), %rax         # 8-byte Reload
	movq	-32(%rbp), %rsi
	movq	-40(%rbp), %rdx
	movq	-56(%rbp), %rcx
	movq	%rax, %rdi
	callq	_ZNKSt8__detail15_Hashtable_baseIccNS_9_IdentityESt8equal_toIcESt4hashIcENS_18_Mod_range_hashingENS_20_Default_ranged_hashENS_17_Hashtable_traitsILb0ELb1ELb1EEEE9_M_equalsERKcmPNS_10_Hash_nodeIcLb0EEE
	testb	$1, %al
	jne	.LBB37_4
	jmp	.LBB37_5
.LBB37_4:
	movq	-48(%rbp), %rax
	movq	%rax, -8(%rbp)
	jmp	.LBB37_11
.LBB37_5:                               #   in Loop: Header=BB37_3 Depth=1
	movq	-56(%rbp), %rax
	cmpq	$0, (%rax)
	je	.LBB37_7
# %bb.6:                                #   in Loop: Header=BB37_3 Depth=1
	movq	-56(%rbp), %rdi
	callq	_ZNKSt8__detail10_Hash_nodeIcLb0EE7_M_nextEv
	movq	-64(%rbp), %rdi         # 8-byte Reload
	movq	%rax, %rsi
	callq	_ZNKSt10_HashtableIccSaIcENSt8__detail9_IdentityESt8equal_toIcESt4hashIcENS1_18_Mod_range_hashingENS1_20_Default_ranged_hashENS1_20_Prime_rehash_policyENS1_17_Hashtable_traitsILb0ELb1ELb1EEEE15_M_bucket_indexEPNS1_10_Hash_nodeIcLb0EEE
	cmpq	-24(%rbp), %rax
	je	.LBB37_8
.LBB37_7:
	jmp	.LBB37_10
.LBB37_8:                               #   in Loop: Header=BB37_3 Depth=1
	movq	-56(%rbp), %rax
	movq	%rax, -48(%rbp)
# %bb.9:                                #   in Loop: Header=BB37_3 Depth=1
	movq	-56(%rbp), %rdi
	callq	_ZNKSt8__detail10_Hash_nodeIcLb0EE7_M_nextEv
	movq	%rax, -56(%rbp)
	jmp	.LBB37_3
.LBB37_10:
	movq	$0, -8(%rbp)
.LBB37_11:
	movq	-8(%rbp), %rax
	addq	$64, %rsp
	popq	%rbp
	retq
.Lfunc_end37:
	.size	_ZNKSt10_HashtableIccSaIcENSt8__detail9_IdentityESt8equal_toIcESt4hashIcENS1_18_Mod_range_hashingENS1_20_Default_ranged_hashENS1_20_Prime_rehash_policyENS1_17_Hashtable_traitsILb0ELb1ELb1EEEE19_M_find_before_nodeEmRKcm, .Lfunc_end37-_ZNKSt10_HashtableIccSaIcENSt8__detail9_IdentityESt8equal_toIcESt4hashIcENS1_18_Mod_range_hashingENS1_20_Default_ranged_hashENS1_20_Prime_rehash_policyENS1_17_Hashtable_traitsILb0ELb1ELb1EEEE19_M_find_before_nodeEmRKcm
	.cfi_endproc
                                        # -- End function
	.section	.text._ZNKSt8__detail15_Hashtable_baseIccNS_9_IdentityESt8equal_toIcESt4hashIcENS_18_Mod_range_hashingENS_20_Default_ranged_hashENS_17_Hashtable_traitsILb0ELb1ELb1EEEE9_M_equalsERKcmPNS_10_Hash_nodeIcLb0EEE,"axG",@progbits,_ZNKSt8__detail15_Hashtable_baseIccNS_9_IdentityESt8equal_toIcESt4hashIcENS_18_Mod_range_hashingENS_20_Default_ranged_hashENS_17_Hashtable_traitsILb0ELb1ELb1EEEE9_M_equalsERKcmPNS_10_Hash_nodeIcLb0EEE,comdat
	.weak	_ZNKSt8__detail15_Hashtable_baseIccNS_9_IdentityESt8equal_toIcESt4hashIcENS_18_Mod_range_hashingENS_20_Default_ranged_hashENS_17_Hashtable_traitsILb0ELb1ELb1EEEE9_M_equalsERKcmPNS_10_Hash_nodeIcLb0EEE # -- Begin function _ZNKSt8__detail15_Hashtable_baseIccNS_9_IdentityESt8equal_toIcESt4hashIcENS_18_Mod_range_hashingENS_20_Default_ranged_hashENS_17_Hashtable_traitsILb0ELb1ELb1EEEE9_M_equalsERKcmPNS_10_Hash_nodeIcLb0EEE
	.p2align	4, 0x90
	.type	_ZNKSt8__detail15_Hashtable_baseIccNS_9_IdentityESt8equal_toIcESt4hashIcENS_18_Mod_range_hashingENS_20_Default_ranged_hashENS_17_Hashtable_traitsILb0ELb1ELb1EEEE9_M_equalsERKcmPNS_10_Hash_nodeIcLb0EEE,@function
_ZNKSt8__detail15_Hashtable_baseIccNS_9_IdentityESt8equal_toIcESt4hashIcENS_18_Mod_range_hashingENS_20_Default_ranged_hashENS_17_Hashtable_traitsILb0ELb1ELb1EEEE9_M_equalsERKcmPNS_10_Hash_nodeIcLb0EEE: # @_ZNKSt8__detail15_Hashtable_baseIccNS_9_IdentityESt8equal_toIcESt4hashIcENS_18_Mod_range_hashingENS_20_Default_ranged_hashENS_17_Hashtable_traitsILb0ELb1ELb1EEEE9_M_equalsERKcmPNS_10_Hash_nodeIcLb0EEE
	.cfi_startproc
# %bb.0:
	pushq	%rbp
	.cfi_def_cfa_offset 16
	.cfi_offset %rbp, -16
	movq	%rsp, %rbp
	.cfi_def_cfa_register %rbp
	subq	$48, %rsp
	movq	%rdi, -8(%rbp)
	movq	%rsi, -16(%rbp)
	movq	%rdx, -24(%rbp)
	movq	%rcx, -32(%rbp)
	movq	-8(%rbp), %rcx
	movq	%rcx, %rdi
	movq	%rcx, -40(%rbp)         # 8-byte Spill
	callq	_ZNKSt8__detail15_Hashtable_baseIccNS_9_IdentityESt8equal_toIcESt4hashIcENS_18_Mod_range_hashingENS_20_Default_ranged_hashENS_17_Hashtable_traitsILb0ELb1ELb1EEEE5_M_eqEv
	movq	-40(%rbp), %rcx         # 8-byte Reload
	movq	%rcx, %rdi
	movq	%rax, -48(%rbp)         # 8-byte Spill
	callq	_ZNKSt8__detail15_Hash_code_baseIccNS_9_IdentityESt4hashIcENS_18_Mod_range_hashingENS_20_Default_ranged_hashELb0EE10_M_extractEv
	movq	-16(%rbp), %rdx
	movq	-24(%rbp), %rcx
	movq	-32(%rbp), %r8
	movq	-48(%rbp), %rdi         # 8-byte Reload
	movq	%rax, %rsi
	callq	_ZNSt8__detail13_Equal_helperIccNS_9_IdentityESt8equal_toIcEmLb0EE9_S_equalsERKS3_RKS1_RKcmPNS_10_Hash_nodeIcLb0EEE
	andb	$1, %al
	movzbl	%al, %eax
	addq	$48, %rsp
	popq	%rbp
	retq
.Lfunc_end38:
	.size	_ZNKSt8__detail15_Hashtable_baseIccNS_9_IdentityESt8equal_toIcESt4hashIcENS_18_Mod_range_hashingENS_20_Default_ranged_hashENS_17_Hashtable_traitsILb0ELb1ELb1EEEE9_M_equalsERKcmPNS_10_Hash_nodeIcLb0EEE, .Lfunc_end38-_ZNKSt8__detail15_Hashtable_baseIccNS_9_IdentityESt8equal_toIcESt4hashIcENS_18_Mod_range_hashingENS_20_Default_ranged_hashENS_17_Hashtable_traitsILb0ELb1ELb1EEEE9_M_equalsERKcmPNS_10_Hash_nodeIcLb0EEE
	.cfi_endproc
                                        # -- End function
	.section	.text._ZNKSt10_HashtableIccSaIcENSt8__detail9_IdentityESt8equal_toIcESt4hashIcENS1_18_Mod_range_hashingENS1_20_Default_ranged_hashENS1_20_Prime_rehash_policyENS1_17_Hashtable_traitsILb0ELb1ELb1EEEE15_M_bucket_indexEPNS1_10_Hash_nodeIcLb0EEE,"axG",@progbits,_ZNKSt10_HashtableIccSaIcENSt8__detail9_IdentityESt8equal_toIcESt4hashIcENS1_18_Mod_range_hashingENS1_20_Default_ranged_hashENS1_20_Prime_rehash_policyENS1_17_Hashtable_traitsILb0ELb1ELb1EEEE15_M_bucket_indexEPNS1_10_Hash_nodeIcLb0EEE,comdat
	.weak	_ZNKSt10_HashtableIccSaIcENSt8__detail9_IdentityESt8equal_toIcESt4hashIcENS1_18_Mod_range_hashingENS1_20_Default_ranged_hashENS1_20_Prime_rehash_policyENS1_17_Hashtable_traitsILb0ELb1ELb1EEEE15_M_bucket_indexEPNS1_10_Hash_nodeIcLb0EEE # -- Begin function _ZNKSt10_HashtableIccSaIcENSt8__detail9_IdentityESt8equal_toIcESt4hashIcENS1_18_Mod_range_hashingENS1_20_Default_ranged_hashENS1_20_Prime_rehash_policyENS1_17_Hashtable_traitsILb0ELb1ELb1EEEE15_M_bucket_indexEPNS1_10_Hash_nodeIcLb0EEE
	.p2align	4, 0x90
	.type	_ZNKSt10_HashtableIccSaIcENSt8__detail9_IdentityESt8equal_toIcESt4hashIcENS1_18_Mod_range_hashingENS1_20_Default_ranged_hashENS1_20_Prime_rehash_policyENS1_17_Hashtable_traitsILb0ELb1ELb1EEEE15_M_bucket_indexEPNS1_10_Hash_nodeIcLb0EEE,@function
_ZNKSt10_HashtableIccSaIcENSt8__detail9_IdentityESt8equal_toIcESt4hashIcENS1_18_Mod_range_hashingENS1_20_Default_ranged_hashENS1_20_Prime_rehash_policyENS1_17_Hashtable_traitsILb0ELb1ELb1EEEE15_M_bucket_indexEPNS1_10_Hash_nodeIcLb0EEE: # @_ZNKSt10_HashtableIccSaIcENSt8__detail9_IdentityESt8equal_toIcESt4hashIcENS1_18_Mod_range_hashingENS1_20_Default_ranged_hashENS1_20_Prime_rehash_policyENS1_17_Hashtable_traitsILb0ELb1ELb1EEEE15_M_bucket_indexEPNS1_10_Hash_nodeIcLb0EEE
	.cfi_startproc
# %bb.0:
	pushq	%rbp
	.cfi_def_cfa_offset 16
	.cfi_offset %rbp, -16
	movq	%rsp, %rbp
	.cfi_def_cfa_register %rbp
	subq	$16, %rsp
	movq	%rdi, -8(%rbp)
	movq	%rsi, -16(%rbp)
	movq	-8(%rbp), %rsi
	movq	%rsi, %rdi
	movq	-16(%rbp), %rax
	movq	8(%rsi), %rdx
	movq	%rax, %rsi
	callq	_ZNKSt8__detail15_Hash_code_baseIccNS_9_IdentityESt4hashIcENS_18_Mod_range_hashingENS_20_Default_ranged_hashELb0EE15_M_bucket_indexEPKNS_10_Hash_nodeIcLb0EEEm
	addq	$16, %rsp
	popq	%rbp
	retq
.Lfunc_end39:
	.size	_ZNKSt10_HashtableIccSaIcENSt8__detail9_IdentityESt8equal_toIcESt4hashIcENS1_18_Mod_range_hashingENS1_20_Default_ranged_hashENS1_20_Prime_rehash_policyENS1_17_Hashtable_traitsILb0ELb1ELb1EEEE15_M_bucket_indexEPNS1_10_Hash_nodeIcLb0EEE, .Lfunc_end39-_ZNKSt10_HashtableIccSaIcENSt8__detail9_IdentityESt8equal_toIcESt4hashIcENS1_18_Mod_range_hashingENS1_20_Default_ranged_hashENS1_20_Prime_rehash_policyENS1_17_Hashtable_traitsILb0ELb1ELb1EEEE15_M_bucket_indexEPNS1_10_Hash_nodeIcLb0EEE
	.cfi_endproc
                                        # -- End function
	.section	.text._ZNKSt8__detail10_Hash_nodeIcLb0EE7_M_nextEv,"axG",@progbits,_ZNKSt8__detail10_Hash_nodeIcLb0EE7_M_nextEv,comdat
	.weak	_ZNKSt8__detail10_Hash_nodeIcLb0EE7_M_nextEv # -- Begin function _ZNKSt8__detail10_Hash_nodeIcLb0EE7_M_nextEv
	.p2align	4, 0x90
	.type	_ZNKSt8__detail10_Hash_nodeIcLb0EE7_M_nextEv,@function
_ZNKSt8__detail10_Hash_nodeIcLb0EE7_M_nextEv: # @_ZNKSt8__detail10_Hash_nodeIcLb0EE7_M_nextEv
	.cfi_startproc
# %bb.0:
	pushq	%rbp
	.cfi_def_cfa_offset 16
	.cfi_offset %rbp, -16
	movq	%rsp, %rbp
	.cfi_def_cfa_register %rbp
	movq	%rdi, -8(%rbp)
	movq	-8(%rbp), %rdi
	movq	(%rdi), %rdi
	movq	%rdi, %rax
	popq	%rbp
	retq
.Lfunc_end40:
	.size	_ZNKSt8__detail10_Hash_nodeIcLb0EE7_M_nextEv, .Lfunc_end40-_ZNKSt8__detail10_Hash_nodeIcLb0EE7_M_nextEv
	.cfi_endproc
                                        # -- End function
	.section	.text._ZNSt8__detail13_Equal_helperIccNS_9_IdentityESt8equal_toIcEmLb0EE9_S_equalsERKS3_RKS1_RKcmPNS_10_Hash_nodeIcLb0EEE,"axG",@progbits,_ZNSt8__detail13_Equal_helperIccNS_9_IdentityESt8equal_toIcEmLb0EE9_S_equalsERKS3_RKS1_RKcmPNS_10_Hash_nodeIcLb0EEE,comdat
	.weak	_ZNSt8__detail13_Equal_helperIccNS_9_IdentityESt8equal_toIcEmLb0EE9_S_equalsERKS3_RKS1_RKcmPNS_10_Hash_nodeIcLb0EEE # -- Begin function _ZNSt8__detail13_Equal_helperIccNS_9_IdentityESt8equal_toIcEmLb0EE9_S_equalsERKS3_RKS1_RKcmPNS_10_Hash_nodeIcLb0EEE
	.p2align	4, 0x90
	.type	_ZNSt8__detail13_Equal_helperIccNS_9_IdentityESt8equal_toIcEmLb0EE9_S_equalsERKS3_RKS1_RKcmPNS_10_Hash_nodeIcLb0EEE,@function
_ZNSt8__detail13_Equal_helperIccNS_9_IdentityESt8equal_toIcEmLb0EE9_S_equalsERKS3_RKS1_RKcmPNS_10_Hash_nodeIcLb0EEE: # @_ZNSt8__detail13_Equal_helperIccNS_9_IdentityESt8equal_toIcEmLb0EE9_S_equalsERKS3_RKS1_RKcmPNS_10_Hash_nodeIcLb0EEE
	.cfi_startproc
# %bb.0:
	pushq	%rbp
	.cfi_def_cfa_offset 16
	.cfi_offset %rbp, -16
	movq	%rsp, %rbp
	.cfi_def_cfa_register %rbp
	subq	$64, %rsp
	movq	%rdi, -8(%rbp)
	movq	%rsi, -16(%rbp)
	movq	%rdx, -24(%rbp)
	movq	%rcx, -32(%rbp)
	movq	%r8, -40(%rbp)
	movq	-8(%rbp), %rdi
	movq	-24(%rbp), %rsi
	movq	-16(%rbp), %rcx
	movq	-40(%rbp), %rdx
	movq	%rdi, -48(%rbp)         # 8-byte Spill
	movq	%rdx, %rdi
	movq	%rcx, -56(%rbp)         # 8-byte Spill
	movq	%rsi, -64(%rbp)         # 8-byte Spill
	callq	_ZNSt8__detail21_Hash_node_value_baseIcE4_M_vEv
	movq	-56(%rbp), %rdi         # 8-byte Reload
	movq	%rax, %rsi
	callq	_ZNKSt8__detail9_IdentityclIRcEEOT_S4_
	movq	-48(%rbp), %rdi         # 8-byte Reload
	movq	-64(%rbp), %rsi         # 8-byte Reload
	movq	%rax, %rdx
	callq	_ZNKSt8equal_toIcEclERKcS2_
	andb	$1, %al
	movzbl	%al, %eax
	addq	$64, %rsp
	popq	%rbp
	retq
.Lfunc_end41:
	.size	_ZNSt8__detail13_Equal_helperIccNS_9_IdentityESt8equal_toIcEmLb0EE9_S_equalsERKS3_RKS1_RKcmPNS_10_Hash_nodeIcLb0EEE, .Lfunc_end41-_ZNSt8__detail13_Equal_helperIccNS_9_IdentityESt8equal_toIcEmLb0EE9_S_equalsERKS3_RKS1_RKcmPNS_10_Hash_nodeIcLb0EEE
	.cfi_endproc
                                        # -- End function
	.section	.text._ZNKSt8__detail15_Hashtable_baseIccNS_9_IdentityESt8equal_toIcESt4hashIcENS_18_Mod_range_hashingENS_20_Default_ranged_hashENS_17_Hashtable_traitsILb0ELb1ELb1EEEE5_M_eqEv,"axG",@progbits,_ZNKSt8__detail15_Hashtable_baseIccNS_9_IdentityESt8equal_toIcESt4hashIcENS_18_Mod_range_hashingENS_20_Default_ranged_hashENS_17_Hashtable_traitsILb0ELb1ELb1EEEE5_M_eqEv,comdat
	.weak	_ZNKSt8__detail15_Hashtable_baseIccNS_9_IdentityESt8equal_toIcESt4hashIcENS_18_Mod_range_hashingENS_20_Default_ranged_hashENS_17_Hashtable_traitsILb0ELb1ELb1EEEE5_M_eqEv # -- Begin function _ZNKSt8__detail15_Hashtable_baseIccNS_9_IdentityESt8equal_toIcESt4hashIcENS_18_Mod_range_hashingENS_20_Default_ranged_hashENS_17_Hashtable_traitsILb0ELb1ELb1EEEE5_M_eqEv
	.p2align	4, 0x90
	.type	_ZNKSt8__detail15_Hashtable_baseIccNS_9_IdentityESt8equal_toIcESt4hashIcENS_18_Mod_range_hashingENS_20_Default_ranged_hashENS_17_Hashtable_traitsILb0ELb1ELb1EEEE5_M_eqEv,@function
_ZNKSt8__detail15_Hashtable_baseIccNS_9_IdentityESt8equal_toIcESt4hashIcENS_18_Mod_range_hashingENS_20_Default_ranged_hashENS_17_Hashtable_traitsILb0ELb1ELb1EEEE5_M_eqEv: # @_ZNKSt8__detail15_Hashtable_baseIccNS_9_IdentityESt8equal_toIcESt4hashIcENS_18_Mod_range_hashingENS_20_Default_ranged_hashENS_17_Hashtable_traitsILb0ELb1ELb1EEEE5_M_eqEv
	.cfi_startproc
# %bb.0:
	pushq	%rbp
	.cfi_def_cfa_offset 16
	.cfi_offset %rbp, -16
	movq	%rsp, %rbp
	.cfi_def_cfa_register %rbp
	subq	$16, %rsp
	movq	%rdi, -8(%rbp)
	movq	-8(%rbp), %rdi
	callq	_ZNSt8__detail21_Hashtable_ebo_helperILi0ESt8equal_toIcELb1EE7_S_cgetERKS3_
	addq	$16, %rsp
	popq	%rbp
	retq
.Lfunc_end42:
	.size	_ZNKSt8__detail15_Hashtable_baseIccNS_9_IdentityESt8equal_toIcESt4hashIcENS_18_Mod_range_hashingENS_20_Default_ranged_hashENS_17_Hashtable_traitsILb0ELb1ELb1EEEE5_M_eqEv, .Lfunc_end42-_ZNKSt8__detail15_Hashtable_baseIccNS_9_IdentityESt8equal_toIcESt4hashIcENS_18_Mod_range_hashingENS_20_Default_ranged_hashENS_17_Hashtable_traitsILb0ELb1ELb1EEEE5_M_eqEv
	.cfi_endproc
                                        # -- End function
	.section	.text._ZNKSt8__detail15_Hash_code_baseIccNS_9_IdentityESt4hashIcENS_18_Mod_range_hashingENS_20_Default_ranged_hashELb0EE10_M_extractEv,"axG",@progbits,_ZNKSt8__detail15_Hash_code_baseIccNS_9_IdentityESt4hashIcENS_18_Mod_range_hashingENS_20_Default_ranged_hashELb0EE10_M_extractEv,comdat
	.weak	_ZNKSt8__detail15_Hash_code_baseIccNS_9_IdentityESt4hashIcENS_18_Mod_range_hashingENS_20_Default_ranged_hashELb0EE10_M_extractEv # -- Begin function _ZNKSt8__detail15_Hash_code_baseIccNS_9_IdentityESt4hashIcENS_18_Mod_range_hashingENS_20_Default_ranged_hashELb0EE10_M_extractEv
	.p2align	4, 0x90
	.type	_ZNKSt8__detail15_Hash_code_baseIccNS_9_IdentityESt4hashIcENS_18_Mod_range_hashingENS_20_Default_ranged_hashELb0EE10_M_extractEv,@function
_ZNKSt8__detail15_Hash_code_baseIccNS_9_IdentityESt4hashIcENS_18_Mod_range_hashingENS_20_Default_ranged_hashELb0EE10_M_extractEv: # @_ZNKSt8__detail15_Hash_code_baseIccNS_9_IdentityESt4hashIcENS_18_Mod_range_hashingENS_20_Default_ranged_hashELb0EE10_M_extractEv
	.cfi_startproc
# %bb.0:
	pushq	%rbp
	.cfi_def_cfa_offset 16
	.cfi_offset %rbp, -16
	movq	%rsp, %rbp
	.cfi_def_cfa_register %rbp
	subq	$16, %rsp
	movq	%rdi, -8(%rbp)
	movq	-8(%rbp), %rdi
	callq	_ZNSt8__detail21_Hashtable_ebo_helperILi0ENS_9_IdentityELb1EE7_S_cgetERKS2_
	addq	$16, %rsp
	popq	%rbp
	retq
.Lfunc_end43:
	.size	_ZNKSt8__detail15_Hash_code_baseIccNS_9_IdentityESt4hashIcENS_18_Mod_range_hashingENS_20_Default_ranged_hashELb0EE10_M_extractEv, .Lfunc_end43-_ZNKSt8__detail15_Hash_code_baseIccNS_9_IdentityESt4hashIcENS_18_Mod_range_hashingENS_20_Default_ranged_hashELb0EE10_M_extractEv
	.cfi_endproc
                                        # -- End function
	.section	.text._ZNKSt8equal_toIcEclERKcS2_,"axG",@progbits,_ZNKSt8equal_toIcEclERKcS2_,comdat
	.weak	_ZNKSt8equal_toIcEclERKcS2_ # -- Begin function _ZNKSt8equal_toIcEclERKcS2_
	.p2align	4, 0x90
	.type	_ZNKSt8equal_toIcEclERKcS2_,@function
_ZNKSt8equal_toIcEclERKcS2_:            # @_ZNKSt8equal_toIcEclERKcS2_
	.cfi_startproc
# %bb.0:
	pushq	%rbp
	.cfi_def_cfa_offset 16
	.cfi_offset %rbp, -16
	movq	%rsp, %rbp
	.cfi_def_cfa_register %rbp
	movq	%rdi, -8(%rbp)
	movq	%rsi, -16(%rbp)
	movq	%rdx, -24(%rbp)
	movq	-16(%rbp), %rdx
	movsbl	(%rdx), %eax
	movq	-24(%rbp), %rdx
	movsbl	(%rdx), %ecx
	cmpl	%ecx, %eax
	sete	%r8b
	andb	$1, %r8b
	movzbl	%r8b, %eax
	popq	%rbp
	retq
.Lfunc_end44:
	.size	_ZNKSt8equal_toIcEclERKcS2_, .Lfunc_end44-_ZNKSt8equal_toIcEclERKcS2_
	.cfi_endproc
                                        # -- End function
	.section	.text._ZNKSt8__detail9_IdentityclIRcEEOT_S4_,"axG",@progbits,_ZNKSt8__detail9_IdentityclIRcEEOT_S4_,comdat
	.weak	_ZNKSt8__detail9_IdentityclIRcEEOT_S4_ # -- Begin function _ZNKSt8__detail9_IdentityclIRcEEOT_S4_
	.p2align	4, 0x90
	.type	_ZNKSt8__detail9_IdentityclIRcEEOT_S4_,@function
_ZNKSt8__detail9_IdentityclIRcEEOT_S4_: # @_ZNKSt8__detail9_IdentityclIRcEEOT_S4_
	.cfi_startproc
# %bb.0:
	pushq	%rbp
	.cfi_def_cfa_offset 16
	.cfi_offset %rbp, -16
	movq	%rsp, %rbp
	.cfi_def_cfa_register %rbp
	subq	$16, %rsp
	movq	%rdi, -8(%rbp)
	movq	%rsi, -16(%rbp)
	movq	-16(%rbp), %rdi
	callq	_ZSt7forwardIRcEOT_RNSt16remove_referenceIS1_E4typeE
	addq	$16, %rsp
	popq	%rbp
	retq
.Lfunc_end45:
	.size	_ZNKSt8__detail9_IdentityclIRcEEOT_S4_, .Lfunc_end45-_ZNKSt8__detail9_IdentityclIRcEEOT_S4_
	.cfi_endproc
                                        # -- End function
	.section	.text._ZNSt8__detail21_Hash_node_value_baseIcE4_M_vEv,"axG",@progbits,_ZNSt8__detail21_Hash_node_value_baseIcE4_M_vEv,comdat
	.weak	_ZNSt8__detail21_Hash_node_value_baseIcE4_M_vEv # -- Begin function _ZNSt8__detail21_Hash_node_value_baseIcE4_M_vEv
	.p2align	4, 0x90
	.type	_ZNSt8__detail21_Hash_node_value_baseIcE4_M_vEv,@function
_ZNSt8__detail21_Hash_node_value_baseIcE4_M_vEv: # @_ZNSt8__detail21_Hash_node_value_baseIcE4_M_vEv
	.cfi_startproc
# %bb.0:
	pushq	%rbp
	.cfi_def_cfa_offset 16
	.cfi_offset %rbp, -16
	movq	%rsp, %rbp
	.cfi_def_cfa_register %rbp
	subq	$16, %rsp
	movq	%rdi, -8(%rbp)
	movq	-8(%rbp), %rdi
	callq	_ZNSt8__detail21_Hash_node_value_baseIcE9_M_valptrEv
	addq	$16, %rsp
	popq	%rbp
	retq
.Lfunc_end46:
	.size	_ZNSt8__detail21_Hash_node_value_baseIcE4_M_vEv, .Lfunc_end46-_ZNSt8__detail21_Hash_node_value_baseIcE4_M_vEv
	.cfi_endproc
                                        # -- End function
	.section	.text._ZSt7forwardIRcEOT_RNSt16remove_referenceIS1_E4typeE,"axG",@progbits,_ZSt7forwardIRcEOT_RNSt16remove_referenceIS1_E4typeE,comdat
	.weak	_ZSt7forwardIRcEOT_RNSt16remove_referenceIS1_E4typeE # -- Begin function _ZSt7forwardIRcEOT_RNSt16remove_referenceIS1_E4typeE
	.p2align	4, 0x90
	.type	_ZSt7forwardIRcEOT_RNSt16remove_referenceIS1_E4typeE,@function
_ZSt7forwardIRcEOT_RNSt16remove_referenceIS1_E4typeE: # @_ZSt7forwardIRcEOT_RNSt16remove_referenceIS1_E4typeE
	.cfi_startproc
# %bb.0:
	pushq	%rbp
	.cfi_def_cfa_offset 16
	.cfi_offset %rbp, -16
	movq	%rsp, %rbp
	.cfi_def_cfa_register %rbp
	movq	%rdi, -8(%rbp)
	movq	-8(%rbp), %rax
	popq	%rbp
	retq
.Lfunc_end47:
	.size	_ZSt7forwardIRcEOT_RNSt16remove_referenceIS1_E4typeE, .Lfunc_end47-_ZSt7forwardIRcEOT_RNSt16remove_referenceIS1_E4typeE
	.cfi_endproc
                                        # -- End function
	.section	.text._ZNSt8__detail21_Hash_node_value_baseIcE9_M_valptrEv,"axG",@progbits,_ZNSt8__detail21_Hash_node_value_baseIcE9_M_valptrEv,comdat
	.weak	_ZNSt8__detail21_Hash_node_value_baseIcE9_M_valptrEv # -- Begin function _ZNSt8__detail21_Hash_node_value_baseIcE9_M_valptrEv
	.p2align	4, 0x90
	.type	_ZNSt8__detail21_Hash_node_value_baseIcE9_M_valptrEv,@function
_ZNSt8__detail21_Hash_node_value_baseIcE9_M_valptrEv: # @_ZNSt8__detail21_Hash_node_value_baseIcE9_M_valptrEv
	.cfi_startproc
# %bb.0:
	pushq	%rbp
	.cfi_def_cfa_offset 16
	.cfi_offset %rbp, -16
	movq	%rsp, %rbp
	.cfi_def_cfa_register %rbp
	subq	$16, %rsp
	movq	%rdi, -8(%rbp)
	movq	-8(%rbp), %rdi
	addq	$8, %rdi
	callq	_ZN9__gnu_cxx16__aligned_bufferIcE6_M_ptrEv
	addq	$16, %rsp
	popq	%rbp
	retq
.Lfunc_end48:
	.size	_ZNSt8__detail21_Hash_node_value_baseIcE9_M_valptrEv, .Lfunc_end48-_ZNSt8__detail21_Hash_node_value_baseIcE9_M_valptrEv
	.cfi_endproc
                                        # -- End function
	.section	.text._ZN9__gnu_cxx16__aligned_bufferIcE6_M_ptrEv,"axG",@progbits,_ZN9__gnu_cxx16__aligned_bufferIcE6_M_ptrEv,comdat
	.weak	_ZN9__gnu_cxx16__aligned_bufferIcE6_M_ptrEv # -- Begin function _ZN9__gnu_cxx16__aligned_bufferIcE6_M_ptrEv
	.p2align	4, 0x90
	.type	_ZN9__gnu_cxx16__aligned_bufferIcE6_M_ptrEv,@function
_ZN9__gnu_cxx16__aligned_bufferIcE6_M_ptrEv: # @_ZN9__gnu_cxx16__aligned_bufferIcE6_M_ptrEv
	.cfi_startproc
# %bb.0:
	pushq	%rbp
	.cfi_def_cfa_offset 16
	.cfi_offset %rbp, -16
	movq	%rsp, %rbp
	.cfi_def_cfa_register %rbp
	subq	$16, %rsp
	movq	%rdi, -8(%rbp)
	movq	-8(%rbp), %rdi
	callq	_ZN9__gnu_cxx16__aligned_bufferIcE7_M_addrEv
	addq	$16, %rsp
	popq	%rbp
	retq
.Lfunc_end49:
	.size	_ZN9__gnu_cxx16__aligned_bufferIcE6_M_ptrEv, .Lfunc_end49-_ZN9__gnu_cxx16__aligned_bufferIcE6_M_ptrEv
	.cfi_endproc
                                        # -- End function
	.section	.text._ZN9__gnu_cxx16__aligned_bufferIcE7_M_addrEv,"axG",@progbits,_ZN9__gnu_cxx16__aligned_bufferIcE7_M_addrEv,comdat
	.weak	_ZN9__gnu_cxx16__aligned_bufferIcE7_M_addrEv # -- Begin function _ZN9__gnu_cxx16__aligned_bufferIcE7_M_addrEv
	.p2align	4, 0x90
	.type	_ZN9__gnu_cxx16__aligned_bufferIcE7_M_addrEv,@function
_ZN9__gnu_cxx16__aligned_bufferIcE7_M_addrEv: # @_ZN9__gnu_cxx16__aligned_bufferIcE7_M_addrEv
	.cfi_startproc
# %bb.0:
	pushq	%rbp
	.cfi_def_cfa_offset 16
	.cfi_offset %rbp, -16
	movq	%rsp, %rbp
	.cfi_def_cfa_register %rbp
	movq	%rdi, -8(%rbp)
	movq	-8(%rbp), %rdi
	movq	%rdi, %rax
	popq	%rbp
	retq
.Lfunc_end50:
	.size	_ZN9__gnu_cxx16__aligned_bufferIcE7_M_addrEv, .Lfunc_end50-_ZN9__gnu_cxx16__aligned_bufferIcE7_M_addrEv
	.cfi_endproc
                                        # -- End function
	.section	.text._ZNSt8__detail21_Hashtable_ebo_helperILi0ESt8equal_toIcELb1EE7_S_cgetERKS3_,"axG",@progbits,_ZNSt8__detail21_Hashtable_ebo_helperILi0ESt8equal_toIcELb1EE7_S_cgetERKS3_,comdat
	.weak	_ZNSt8__detail21_Hashtable_ebo_helperILi0ESt8equal_toIcELb1EE7_S_cgetERKS3_ # -- Begin function _ZNSt8__detail21_Hashtable_ebo_helperILi0ESt8equal_toIcELb1EE7_S_cgetERKS3_
	.p2align	4, 0x90
	.type	_ZNSt8__detail21_Hashtable_ebo_helperILi0ESt8equal_toIcELb1EE7_S_cgetERKS3_,@function
_ZNSt8__detail21_Hashtable_ebo_helperILi0ESt8equal_toIcELb1EE7_S_cgetERKS3_: # @_ZNSt8__detail21_Hashtable_ebo_helperILi0ESt8equal_toIcELb1EE7_S_cgetERKS3_
	.cfi_startproc
# %bb.0:
	pushq	%rbp
	.cfi_def_cfa_offset 16
	.cfi_offset %rbp, -16
	movq	%rsp, %rbp
	.cfi_def_cfa_register %rbp
	movq	%rdi, -8(%rbp)
	movq	-8(%rbp), %rdi
	movq	%rdi, %rax
	popq	%rbp
	retq
.Lfunc_end51:
	.size	_ZNSt8__detail21_Hashtable_ebo_helperILi0ESt8equal_toIcELb1EE7_S_cgetERKS3_, .Lfunc_end51-_ZNSt8__detail21_Hashtable_ebo_helperILi0ESt8equal_toIcELb1EE7_S_cgetERKS3_
	.cfi_endproc
                                        # -- End function
	.section	.text._ZNSt8__detail21_Hashtable_ebo_helperILi0ENS_9_IdentityELb1EE7_S_cgetERKS2_,"axG",@progbits,_ZNSt8__detail21_Hashtable_ebo_helperILi0ENS_9_IdentityELb1EE7_S_cgetERKS2_,comdat
	.weak	_ZNSt8__detail21_Hashtable_ebo_helperILi0ENS_9_IdentityELb1EE7_S_cgetERKS2_ # -- Begin function _ZNSt8__detail21_Hashtable_ebo_helperILi0ENS_9_IdentityELb1EE7_S_cgetERKS2_
	.p2align	4, 0x90
	.type	_ZNSt8__detail21_Hashtable_ebo_helperILi0ENS_9_IdentityELb1EE7_S_cgetERKS2_,@function
_ZNSt8__detail21_Hashtable_ebo_helperILi0ENS_9_IdentityELb1EE7_S_cgetERKS2_: # @_ZNSt8__detail21_Hashtable_ebo_helperILi0ENS_9_IdentityELb1EE7_S_cgetERKS2_
	.cfi_startproc
# %bb.0:
	pushq	%rbp
	.cfi_def_cfa_offset 16
	.cfi_offset %rbp, -16
	movq	%rsp, %rbp
	.cfi_def_cfa_register %rbp
	movq	%rdi, -8(%rbp)
	movq	-8(%rbp), %rdi
	movq	%rdi, %rax
	popq	%rbp
	retq
.Lfunc_end52:
	.size	_ZNSt8__detail21_Hashtable_ebo_helperILi0ENS_9_IdentityELb1EE7_S_cgetERKS2_, .Lfunc_end52-_ZNSt8__detail21_Hashtable_ebo_helperILi0ENS_9_IdentityELb1EE7_S_cgetERKS2_
	.cfi_endproc
                                        # -- End function
	.section	.text._ZNKSt8__detail15_Hash_code_baseIccNS_9_IdentityESt4hashIcENS_18_Mod_range_hashingENS_20_Default_ranged_hashELb0EE15_M_bucket_indexEPKNS_10_Hash_nodeIcLb0EEEm,"axG",@progbits,_ZNKSt8__detail15_Hash_code_baseIccNS_9_IdentityESt4hashIcENS_18_Mod_range_hashingENS_20_Default_ranged_hashELb0EE15_M_bucket_indexEPKNS_10_Hash_nodeIcLb0EEEm,comdat
	.weak	_ZNKSt8__detail15_Hash_code_baseIccNS_9_IdentityESt4hashIcENS_18_Mod_range_hashingENS_20_Default_ranged_hashELb0EE15_M_bucket_indexEPKNS_10_Hash_nodeIcLb0EEEm # -- Begin function _ZNKSt8__detail15_Hash_code_baseIccNS_9_IdentityESt4hashIcENS_18_Mod_range_hashingENS_20_Default_ranged_hashELb0EE15_M_bucket_indexEPKNS_10_Hash_nodeIcLb0EEEm
	.p2align	4, 0x90
	.type	_ZNKSt8__detail15_Hash_code_baseIccNS_9_IdentityESt4hashIcENS_18_Mod_range_hashingENS_20_Default_ranged_hashELb0EE15_M_bucket_indexEPKNS_10_Hash_nodeIcLb0EEEm,@function
_ZNKSt8__detail15_Hash_code_baseIccNS_9_IdentityESt4hashIcENS_18_Mod_range_hashingENS_20_Default_ranged_hashELb0EE15_M_bucket_indexEPKNS_10_Hash_nodeIcLb0EEEm: # @_ZNKSt8__detail15_Hash_code_baseIccNS_9_IdentityESt4hashIcENS_18_Mod_range_hashingENS_20_Default_ranged_hashELb0EE15_M_bucket_indexEPKNS_10_Hash_nodeIcLb0EEEm
.Lfunc_begin3:
	.cfi_startproc
	.cfi_personality 3, __gxx_personality_v0
	.cfi_lsda 3, .Lexception3
# %bb.0:
	pushq	%rbp
	.cfi_def_cfa_offset 16
	.cfi_offset %rbp, -16
	movq	%rsp, %rbp
	.cfi_def_cfa_register %rbp
	subq	$80, %rsp
	movq	%rdi, -8(%rbp)
	movq	%rsi, -16(%rbp)
	movq	%rdx, -24(%rbp)
	movq	-8(%rbp), %rdx
.Ltmp42:
	movq	%rdx, %rdi
	movq	%rdx, -32(%rbp)         # 8-byte Spill
	callq	_ZNKSt8__detail15_Hash_code_baseIccNS_9_IdentityESt4hashIcENS_18_Mod_range_hashingENS_20_Default_ranged_hashELb0EE5_M_h2Ev
.Ltmp43:
	movq	%rax, -40(%rbp)         # 8-byte Spill
	jmp	.LBB53_1
.LBB53_1:
.Ltmp44:
	movq	-32(%rbp), %rdi         # 8-byte Reload
	callq	_ZNKSt8__detail15_Hash_code_baseIccNS_9_IdentityESt4hashIcENS_18_Mod_range_hashingENS_20_Default_ranged_hashELb0EE5_M_h1Ev
.Ltmp45:
	movq	%rax, -48(%rbp)         # 8-byte Spill
	jmp	.LBB53_2
.LBB53_2:
.Ltmp46:
	movq	-32(%rbp), %rdi         # 8-byte Reload
	callq	_ZNKSt8__detail15_Hash_code_baseIccNS_9_IdentityESt4hashIcENS_18_Mod_range_hashingENS_20_Default_ranged_hashELb0EE10_M_extractEv
.Ltmp47:
	movq	%rax, -56(%rbp)         # 8-byte Spill
	jmp	.LBB53_3
.LBB53_3:
	movq	-16(%rbp), %rdi
	callq	_ZNKSt8__detail21_Hash_node_value_baseIcE4_M_vEv
.Ltmp48:
	movq	-56(%rbp), %rdi         # 8-byte Reload
	movq	%rax, %rsi
	callq	_ZNKSt8__detail9_IdentityclIRKcEEOT_S5_
.Ltmp49:
	movq	%rax, -64(%rbp)         # 8-byte Spill
	jmp	.LBB53_4
.LBB53_4:
	movq	-48(%rbp), %rdi         # 8-byte Reload
	movq	-64(%rbp), %rax         # 8-byte Reload
	movsbl	(%rax), %esi
	callq	_ZNKSt4hashIcEclEc
	movq	-24(%rbp), %rdx
	movq	-40(%rbp), %rdi         # 8-byte Reload
	movq	%rax, %rsi
	callq	_ZNKSt8__detail18_Mod_range_hashingclEmm
	addq	$80, %rsp
	popq	%rbp
	retq
.LBB53_5:
.Ltmp50:
	movl	%edx, %ecx
	movq	%rax, %rdi
	movl	%ecx, -68(%rbp)         # 4-byte Spill
	callq	__clang_call_terminate
.Lfunc_end53:
	.size	_ZNKSt8__detail15_Hash_code_baseIccNS_9_IdentityESt4hashIcENS_18_Mod_range_hashingENS_20_Default_ranged_hashELb0EE15_M_bucket_indexEPKNS_10_Hash_nodeIcLb0EEEm, .Lfunc_end53-_ZNKSt8__detail15_Hash_code_baseIccNS_9_IdentityESt4hashIcENS_18_Mod_range_hashingENS_20_Default_ranged_hashELb0EE15_M_bucket_indexEPKNS_10_Hash_nodeIcLb0EEEm
	.cfi_endproc
	.section	.gcc_except_table,"a",@progbits
	.p2align	2
GCC_except_table53:
.Lexception3:
	.byte	255                     # @LPStart Encoding = omit
	.byte	3                       # @TType Encoding = udata4
	.byte	21                      # @TType base offset
	.byte	3                       # Call site Encoding = udata4
	.byte	13                      # Call site table length
	.long	.Ltmp42-.Lfunc_begin3   # >> Call Site 1 <<
	.long	.Ltmp49-.Ltmp42         #   Call between .Ltmp42 and .Ltmp49
	.long	.Ltmp50-.Lfunc_begin3   #     jumps to .Ltmp50
	.byte	1                       #   On action: 1
	.byte	1                       # >> Action Record 1 <<
                                        #   Catch TypeInfo 1
	.byte	0                       #   No further actions
                                        # >> Catch TypeInfos <<
	.long	0                       # TypeInfo 1
	.p2align	2
                                        # -- End function
	.section	.text.__clang_call_terminate,"axG",@progbits,__clang_call_terminate,comdat
	.hidden	__clang_call_terminate  # -- Begin function __clang_call_terminate
	.weak	__clang_call_terminate
	.p2align	4, 0x90
	.type	__clang_call_terminate,@function
__clang_call_terminate:                 # @__clang_call_terminate
# %bb.0:
	pushq	%rax
	callq	__cxa_begin_catch
	movq	%rax, (%rsp)            # 8-byte Spill
	callq	_ZSt9terminatev
.Lfunc_end54:
	.size	__clang_call_terminate, .Lfunc_end54-__clang_call_terminate
                                        # -- End function
	.section	.text._ZNKSt8__detail21_Hash_node_value_baseIcE4_M_vEv,"axG",@progbits,_ZNKSt8__detail21_Hash_node_value_baseIcE4_M_vEv,comdat
	.weak	_ZNKSt8__detail21_Hash_node_value_baseIcE4_M_vEv # -- Begin function _ZNKSt8__detail21_Hash_node_value_baseIcE4_M_vEv
	.p2align	4, 0x90
	.type	_ZNKSt8__detail21_Hash_node_value_baseIcE4_M_vEv,@function
_ZNKSt8__detail21_Hash_node_value_baseIcE4_M_vEv: # @_ZNKSt8__detail21_Hash_node_value_baseIcE4_M_vEv
	.cfi_startproc
# %bb.0:
	pushq	%rbp
	.cfi_def_cfa_offset 16
	.cfi_offset %rbp, -16
	movq	%rsp, %rbp
	.cfi_def_cfa_register %rbp
	subq	$16, %rsp
	movq	%rdi, -8(%rbp)
	movq	-8(%rbp), %rdi
	callq	_ZNKSt8__detail21_Hash_node_value_baseIcE9_M_valptrEv
	addq	$16, %rsp
	popq	%rbp
	retq
.Lfunc_end55:
	.size	_ZNKSt8__detail21_Hash_node_value_baseIcE4_M_vEv, .Lfunc_end55-_ZNKSt8__detail21_Hash_node_value_baseIcE4_M_vEv
	.cfi_endproc
                                        # -- End function
	.section	.text._ZNKSt8__detail21_Hash_node_value_baseIcE9_M_valptrEv,"axG",@progbits,_ZNKSt8__detail21_Hash_node_value_baseIcE9_M_valptrEv,comdat
	.weak	_ZNKSt8__detail21_Hash_node_value_baseIcE9_M_valptrEv # -- Begin function _ZNKSt8__detail21_Hash_node_value_baseIcE9_M_valptrEv
	.p2align	4, 0x90
	.type	_ZNKSt8__detail21_Hash_node_value_baseIcE9_M_valptrEv,@function
_ZNKSt8__detail21_Hash_node_value_baseIcE9_M_valptrEv: # @_ZNKSt8__detail21_Hash_node_value_baseIcE9_M_valptrEv
	.cfi_startproc
# %bb.0:
	pushq	%rbp
	.cfi_def_cfa_offset 16
	.cfi_offset %rbp, -16
	movq	%rsp, %rbp
	.cfi_def_cfa_register %rbp
	subq	$16, %rsp
	movq	%rdi, -8(%rbp)
	movq	-8(%rbp), %rdi
	addq	$8, %rdi
	callq	_ZNK9__gnu_cxx16__aligned_bufferIcE6_M_ptrEv
	addq	$16, %rsp
	popq	%rbp
	retq
.Lfunc_end56:
	.size	_ZNKSt8__detail21_Hash_node_value_baseIcE9_M_valptrEv, .Lfunc_end56-_ZNKSt8__detail21_Hash_node_value_baseIcE9_M_valptrEv
	.cfi_endproc
                                        # -- End function
	.section	.text._ZNK9__gnu_cxx16__aligned_bufferIcE6_M_ptrEv,"axG",@progbits,_ZNK9__gnu_cxx16__aligned_bufferIcE6_M_ptrEv,comdat
	.weak	_ZNK9__gnu_cxx16__aligned_bufferIcE6_M_ptrEv # -- Begin function _ZNK9__gnu_cxx16__aligned_bufferIcE6_M_ptrEv
	.p2align	4, 0x90
	.type	_ZNK9__gnu_cxx16__aligned_bufferIcE6_M_ptrEv,@function
_ZNK9__gnu_cxx16__aligned_bufferIcE6_M_ptrEv: # @_ZNK9__gnu_cxx16__aligned_bufferIcE6_M_ptrEv
	.cfi_startproc
# %bb.0:
	pushq	%rbp
	.cfi_def_cfa_offset 16
	.cfi_offset %rbp, -16
	movq	%rsp, %rbp
	.cfi_def_cfa_register %rbp
	subq	$16, %rsp
	movq	%rdi, -8(%rbp)
	movq	-8(%rbp), %rdi
	callq	_ZNK9__gnu_cxx16__aligned_bufferIcE7_M_addrEv
	addq	$16, %rsp
	popq	%rbp
	retq
.Lfunc_end57:
	.size	_ZNK9__gnu_cxx16__aligned_bufferIcE6_M_ptrEv, .Lfunc_end57-_ZNK9__gnu_cxx16__aligned_bufferIcE6_M_ptrEv
	.cfi_endproc
                                        # -- End function
	.section	.text._ZNK9__gnu_cxx16__aligned_bufferIcE7_M_addrEv,"axG",@progbits,_ZNK9__gnu_cxx16__aligned_bufferIcE7_M_addrEv,comdat
	.weak	_ZNK9__gnu_cxx16__aligned_bufferIcE7_M_addrEv # -- Begin function _ZNK9__gnu_cxx16__aligned_bufferIcE7_M_addrEv
	.p2align	4, 0x90
	.type	_ZNK9__gnu_cxx16__aligned_bufferIcE7_M_addrEv,@function
_ZNK9__gnu_cxx16__aligned_bufferIcE7_M_addrEv: # @_ZNK9__gnu_cxx16__aligned_bufferIcE7_M_addrEv
	.cfi_startproc
# %bb.0:
	pushq	%rbp
	.cfi_def_cfa_offset 16
	.cfi_offset %rbp, -16
	movq	%rsp, %rbp
	.cfi_def_cfa_register %rbp
	movq	%rdi, -8(%rbp)
	movq	-8(%rbp), %rdi
	movq	%rdi, %rax
	popq	%rbp
	retq
.Lfunc_end58:
	.size	_ZNK9__gnu_cxx16__aligned_bufferIcE7_M_addrEv, .Lfunc_end58-_ZNK9__gnu_cxx16__aligned_bufferIcE7_M_addrEv
	.cfi_endproc
                                        # -- End function
	.section	.text._ZSt7forwardINSt8__detail14_Node_iteratorIcLb1ELb0EEEEOT_RNSt16remove_referenceIS3_E4typeE,"axG",@progbits,_ZSt7forwardINSt8__detail14_Node_iteratorIcLb1ELb0EEEEOT_RNSt16remove_referenceIS3_E4typeE,comdat
	.weak	_ZSt7forwardINSt8__detail14_Node_iteratorIcLb1ELb0EEEEOT_RNSt16remove_referenceIS3_E4typeE # -- Begin function _ZSt7forwardINSt8__detail14_Node_iteratorIcLb1ELb0EEEEOT_RNSt16remove_referenceIS3_E4typeE
	.p2align	4, 0x90
	.type	_ZSt7forwardINSt8__detail14_Node_iteratorIcLb1ELb0EEEEOT_RNSt16remove_referenceIS3_E4typeE,@function
_ZSt7forwardINSt8__detail14_Node_iteratorIcLb1ELb0EEEEOT_RNSt16remove_referenceIS3_E4typeE: # @_ZSt7forwardINSt8__detail14_Node_iteratorIcLb1ELb0EEEEOT_RNSt16remove_referenceIS3_E4typeE
	.cfi_startproc
# %bb.0:
	pushq	%rbp
	.cfi_def_cfa_offset 16
	.cfi_offset %rbp, -16
	movq	%rsp, %rbp
	.cfi_def_cfa_register %rbp
	movq	%rdi, -8(%rbp)
	movq	-8(%rbp), %rax
	popq	%rbp
	retq
.Lfunc_end59:
	.size	_ZSt7forwardINSt8__detail14_Node_iteratorIcLb1ELb0EEEEOT_RNSt16remove_referenceIS3_E4typeE, .Lfunc_end59-_ZSt7forwardINSt8__detail14_Node_iteratorIcLb1ELb0EEEEOT_RNSt16remove_referenceIS3_E4typeE
	.cfi_endproc
                                        # -- End function
	.section	.text._ZSt7forwardIbEOT_RNSt16remove_referenceIS0_E4typeE,"axG",@progbits,_ZSt7forwardIbEOT_RNSt16remove_referenceIS0_E4typeE,comdat
	.weak	_ZSt7forwardIbEOT_RNSt16remove_referenceIS0_E4typeE # -- Begin function _ZSt7forwardIbEOT_RNSt16remove_referenceIS0_E4typeE
	.p2align	4, 0x90
	.type	_ZSt7forwardIbEOT_RNSt16remove_referenceIS0_E4typeE,@function
_ZSt7forwardIbEOT_RNSt16remove_referenceIS0_E4typeE: # @_ZSt7forwardIbEOT_RNSt16remove_referenceIS0_E4typeE
	.cfi_startproc
# %bb.0:
	pushq	%rbp
	.cfi_def_cfa_offset 16
	.cfi_offset %rbp, -16
	movq	%rsp, %rbp
	.cfi_def_cfa_register %rbp
	movq	%rdi, -8(%rbp)
	movq	-8(%rbp), %rax
	popq	%rbp
	retq
.Lfunc_end60:
	.size	_ZSt7forwardIbEOT_RNSt16remove_referenceIS0_E4typeE, .Lfunc_end60-_ZSt7forwardIbEOT_RNSt16remove_referenceIS0_E4typeE
	.cfi_endproc
                                        # -- End function
	.section	.text._ZNSt4pairINSt8__detail14_Node_iteratorIcLb1ELb0EEEbEC2IS2_bLb1EEEOT_OT0_,"axG",@progbits,_ZNSt4pairINSt8__detail14_Node_iteratorIcLb1ELb0EEEbEC2IS2_bLb1EEEOT_OT0_,comdat
	.weak	_ZNSt4pairINSt8__detail14_Node_iteratorIcLb1ELb0EEEbEC2IS2_bLb1EEEOT_OT0_ # -- Begin function _ZNSt4pairINSt8__detail14_Node_iteratorIcLb1ELb0EEEbEC2IS2_bLb1EEEOT_OT0_
	.p2align	4, 0x90
	.type	_ZNSt4pairINSt8__detail14_Node_iteratorIcLb1ELb0EEEbEC2IS2_bLb1EEEOT_OT0_,@function
_ZNSt4pairINSt8__detail14_Node_iteratorIcLb1ELb0EEEbEC2IS2_bLb1EEEOT_OT0_: # @_ZNSt4pairINSt8__detail14_Node_iteratorIcLb1ELb0EEEbEC2IS2_bLb1EEEOT_OT0_
	.cfi_startproc
# %bb.0:
	pushq	%rbp
	.cfi_def_cfa_offset 16
	.cfi_offset %rbp, -16
	movq	%rsp, %rbp
	.cfi_def_cfa_register %rbp
	subq	$32, %rsp
	movq	%rdi, -8(%rbp)
	movq	%rsi, -16(%rbp)
	movq	%rdx, -24(%rbp)
	movq	-8(%rbp), %rdx
	movq	-16(%rbp), %rdi
	movq	%rdx, -32(%rbp)         # 8-byte Spill
	callq	_ZSt7forwardINSt8__detail14_Node_iteratorIcLb1ELb0EEEEOT_RNSt16remove_referenceIS3_E4typeE
	movq	(%rax), %rax
	movq	-32(%rbp), %rdx         # 8-byte Reload
	movq	%rax, (%rdx)
	movq	-24(%rbp), %rdi
	callq	_ZSt7forwardIbEOT_RNSt16remove_referenceIS0_E4typeE
	movb	(%rax), %cl
	andb	$1, %cl
	movq	-32(%rbp), %rax         # 8-byte Reload
	movb	%cl, 8(%rax)
	addq	$32, %rsp
	popq	%rbp
	retq
.Lfunc_end61:
	.size	_ZNSt4pairINSt8__detail14_Node_iteratorIcLb1ELb0EEEbEC2IS2_bLb1EEEOT_OT0_, .Lfunc_end61-_ZNSt4pairINSt8__detail14_Node_iteratorIcLb1ELb0EEEbEC2IS2_bLb1EEEOT_OT0_
	.cfi_endproc
                                        # -- End function
	.section	.text._ZNSt8__detail19_Node_iterator_baseIcLb0EEC2EPNS_10_Hash_nodeIcLb0EEE,"axG",@progbits,_ZNSt8__detail19_Node_iterator_baseIcLb0EEC2EPNS_10_Hash_nodeIcLb0EEE,comdat
	.weak	_ZNSt8__detail19_Node_iterator_baseIcLb0EEC2EPNS_10_Hash_nodeIcLb0EEE # -- Begin function _ZNSt8__detail19_Node_iterator_baseIcLb0EEC2EPNS_10_Hash_nodeIcLb0EEE
	.p2align	4, 0x90
	.type	_ZNSt8__detail19_Node_iterator_baseIcLb0EEC2EPNS_10_Hash_nodeIcLb0EEE,@function
_ZNSt8__detail19_Node_iterator_baseIcLb0EEC2EPNS_10_Hash_nodeIcLb0EEE: # @_ZNSt8__detail19_Node_iterator_baseIcLb0EEC2EPNS_10_Hash_nodeIcLb0EEE
	.cfi_startproc
# %bb.0:
	pushq	%rbp
	.cfi_def_cfa_offset 16
	.cfi_offset %rbp, -16
	movq	%rsp, %rbp
	.cfi_def_cfa_register %rbp
	movq	%rdi, -8(%rbp)
	movq	%rsi, -16(%rbp)
	movq	-8(%rbp), %rsi
	movq	-16(%rbp), %rdi
	movq	%rdi, (%rsi)
	popq	%rbp
	retq
.Lfunc_end62:
	.size	_ZNSt8__detail19_Node_iterator_baseIcLb0EEC2EPNS_10_Hash_nodeIcLb0EEE, .Lfunc_end62-_ZNSt8__detail19_Node_iterator_baseIcLb0EEC2EPNS_10_Hash_nodeIcLb0EEE
	.cfi_endproc
                                        # -- End function
	.section	.text._ZNSt8__detail16_Hashtable_allocISaINS_10_Hash_nodeIcLb0EEEEE16_M_allocate_nodeIJRKcEEEPS2_DpOT_,"axG",@progbits,_ZNSt8__detail16_Hashtable_allocISaINS_10_Hash_nodeIcLb0EEEEE16_M_allocate_nodeIJRKcEEEPS2_DpOT_,comdat
	.weak	_ZNSt8__detail16_Hashtable_allocISaINS_10_Hash_nodeIcLb0EEEEE16_M_allocate_nodeIJRKcEEEPS2_DpOT_ # -- Begin function _ZNSt8__detail16_Hashtable_allocISaINS_10_Hash_nodeIcLb0EEEEE16_M_allocate_nodeIJRKcEEEPS2_DpOT_
	.p2align	4, 0x90
	.type	_ZNSt8__detail16_Hashtable_allocISaINS_10_Hash_nodeIcLb0EEEEE16_M_allocate_nodeIJRKcEEEPS2_DpOT_,@function
_ZNSt8__detail16_Hashtable_allocISaINS_10_Hash_nodeIcLb0EEEEE16_M_allocate_nodeIJRKcEEEPS2_DpOT_: # @_ZNSt8__detail16_Hashtable_allocISaINS_10_Hash_nodeIcLb0EEEEE16_M_allocate_nodeIJRKcEEEPS2_DpOT_
.Lfunc_begin4:
	.cfi_startproc
	.cfi_personality 3, __gxx_personality_v0
	.cfi_lsda 3, .Lexception4
# %bb.0:
	pushq	%rbp
	.cfi_def_cfa_offset 16
	.cfi_offset %rbp, -16
	movq	%rsp, %rbp
	.cfi_def_cfa_register %rbp
	subq	$128, %rsp
	movq	%rdi, -8(%rbp)
	movq	%rsi, -16(%rbp)
	movq	-8(%rbp), %rsi
	movq	%rsi, %rdi
	movq	%rsi, -64(%rbp)         # 8-byte Spill
	callq	_ZNSt8__detail16_Hashtable_allocISaINS_10_Hash_nodeIcLb0EEEEE17_M_node_allocatorEv
	movl	$1, %ecx
	movl	%ecx, %esi
	movq	%rax, %rdi
	callq	_ZNSt16allocator_traitsISaINSt8__detail10_Hash_nodeIcLb0EEEEE8allocateERS3_m
	movq	%rax, -24(%rbp)
	movq	-24(%rbp), %rdi
	callq	_ZSt11__addressofINSt8__detail10_Hash_nodeIcLb0EEEEPT_RS3_
	movq	%rax, -32(%rbp)
.Ltmp51:
	movq	-64(%rbp), %rdi         # 8-byte Reload
	callq	_ZNSt8__detail16_Hashtable_allocISaINS_10_Hash_nodeIcLb0EEEEE17_M_node_allocatorEv
.Ltmp52:
	movq	%rax, -72(%rbp)         # 8-byte Spill
	jmp	.LBB63_1
.LBB63_1:
	leaq	-40(%rbp), %rax
	movq	%rax, %rdi
	movq	-72(%rbp), %rsi         # 8-byte Reload
	movq	%rax, -80(%rbp)         # 8-byte Spill
	callq	_ZNSaIcEC2INSt8__detail10_Hash_nodeIcLb0EEEEERKSaIT_E
	movq	-32(%rbp), %rdi
	callq	_ZNSt8__detail10_Hash_nodeIcLb0EEC2Ev
	movq	-32(%rbp), %rdi
	callq	_ZNSt8__detail21_Hash_node_value_baseIcE9_M_valptrEv
	movq	-16(%rbp), %rdi
	movq	%rax, -88(%rbp)         # 8-byte Spill
	callq	_ZSt7forwardIRKcEOT_RNSt16remove_referenceIS2_E4typeE
.Ltmp54:
	movq	-80(%rbp), %rdi         # 8-byte Reload
	movq	-88(%rbp), %rsi         # 8-byte Reload
	movq	%rax, %rdx
	callq	_ZNSt16allocator_traitsISaIcEE9constructIcJRKcEEEvRS0_PT_DpOT0_
.Ltmp55:
	jmp	.LBB63_2
.LBB63_2:
	leaq	-40(%rbp), %rdi
	movq	-32(%rbp), %rax
	movq	%rax, -96(%rbp)         # 8-byte Spill
	callq	_ZNSaIcED1Ev
	movq	-96(%rbp), %rax         # 8-byte Reload
	addq	$128, %rsp
	popq	%rbp
	retq
.LBB63_3:
.Ltmp53:
	movl	%edx, %ecx
	movq	%rax, -48(%rbp)
	movl	%ecx, -52(%rbp)
	jmp	.LBB63_5
.LBB63_4:
.Ltmp56:
	leaq	-40(%rbp), %rdi
	movl	%edx, %ecx
	movq	%rax, -48(%rbp)
	movl	%ecx, -52(%rbp)
	callq	_ZNSaIcED1Ev
.LBB63_5:
	movq	-48(%rbp), %rdi
	callq	__cxa_begin_catch
.Ltmp57:
	movq	-64(%rbp), %rdi         # 8-byte Reload
	movq	%rax, -104(%rbp)        # 8-byte Spill
	callq	_ZNSt8__detail16_Hashtable_allocISaINS_10_Hash_nodeIcLb0EEEEE17_M_node_allocatorEv
.Ltmp58:
	movq	%rax, -112(%rbp)        # 8-byte Spill
	jmp	.LBB63_6
.LBB63_6:
	movq	-24(%rbp), %rsi
.Ltmp59:
	movl	$1, %eax
	movl	%eax, %edx
	movq	-112(%rbp), %rdi        # 8-byte Reload
	callq	_ZNSt16allocator_traitsISaINSt8__detail10_Hash_nodeIcLb0EEEEE10deallocateERS3_PS2_m
.Ltmp60:
	jmp	.LBB63_7
.LBB63_7:
.Ltmp61:
	callq	__cxa_rethrow
.Ltmp62:
	jmp	.LBB63_12
.LBB63_8:
.Ltmp63:
	movl	%edx, %ecx
	movq	%rax, -48(%rbp)
	movl	%ecx, -52(%rbp)
.Ltmp64:
	callq	__cxa_end_catch
.Ltmp65:
	jmp	.LBB63_9
.LBB63_9:
	jmp	.LBB63_10
.LBB63_10:
	movq	-48(%rbp), %rdi
	callq	_Unwind_Resume
.LBB63_11:
.Ltmp66:
	movl	%edx, %ecx
	movq	%rax, %rdi
	movl	%ecx, -116(%rbp)        # 4-byte Spill
	callq	__clang_call_terminate
.LBB63_12:
.Lfunc_end63:
	.size	_ZNSt8__detail16_Hashtable_allocISaINS_10_Hash_nodeIcLb0EEEEE16_M_allocate_nodeIJRKcEEEPS2_DpOT_, .Lfunc_end63-_ZNSt8__detail16_Hashtable_allocISaINS_10_Hash_nodeIcLb0EEEEE16_M_allocate_nodeIJRKcEEEPS2_DpOT_
	.cfi_endproc
	.section	.gcc_except_table,"a",@progbits
	.p2align	2
GCC_except_table63:
.Lexception4:
	.byte	255                     # @LPStart Encoding = omit
	.byte	3                       # @TType Encoding = udata4
	.asciz	"\343\200"              # @TType base offset
	.byte	3                       # Call site Encoding = udata4
	.byte	91                      # Call site table length
	.long	.Lfunc_begin4-.Lfunc_begin4 # >> Call Site 1 <<
	.long	.Ltmp51-.Lfunc_begin4   #   Call between .Lfunc_begin4 and .Ltmp51
	.long	0                       #     has no landing pad
	.byte	0                       #   On action: cleanup
	.long	.Ltmp51-.Lfunc_begin4   # >> Call Site 2 <<
	.long	.Ltmp52-.Ltmp51         #   Call between .Ltmp51 and .Ltmp52
	.long	.Ltmp53-.Lfunc_begin4   #     jumps to .Ltmp53
	.byte	1                       #   On action: 1
	.long	.Ltmp54-.Lfunc_begin4   # >> Call Site 3 <<
	.long	.Ltmp55-.Ltmp54         #   Call between .Ltmp54 and .Ltmp55
	.long	.Ltmp56-.Lfunc_begin4   #     jumps to .Ltmp56
	.byte	1                       #   On action: 1
	.long	.Ltmp55-.Lfunc_begin4   # >> Call Site 4 <<
	.long	.Ltmp57-.Ltmp55         #   Call between .Ltmp55 and .Ltmp57
	.long	0                       #     has no landing pad
	.byte	0                       #   On action: cleanup
	.long	.Ltmp57-.Lfunc_begin4   # >> Call Site 5 <<
	.long	.Ltmp62-.Ltmp57         #   Call between .Ltmp57 and .Ltmp62
	.long	.Ltmp63-.Lfunc_begin4   #     jumps to .Ltmp63
	.byte	0                       #   On action: cleanup
	.long	.Ltmp64-.Lfunc_begin4   # >> Call Site 6 <<
	.long	.Ltmp65-.Ltmp64         #   Call between .Ltmp64 and .Ltmp65
	.long	.Ltmp66-.Lfunc_begin4   #     jumps to .Ltmp66
	.byte	1                       #   On action: 1
	.long	.Ltmp65-.Lfunc_begin4   # >> Call Site 7 <<
	.long	.Lfunc_end63-.Ltmp65    #   Call between .Ltmp65 and .Lfunc_end63
	.long	0                       #     has no landing pad
	.byte	0                       #   On action: cleanup
	.byte	1                       # >> Action Record 1 <<
                                        #   Catch TypeInfo 1
	.byte	0                       #   No further actions
                                        # >> Catch TypeInfos <<
	.long	0                       # TypeInfo 1
	.p2align	2
                                        # -- End function
	.section	.text._ZNSt16allocator_traitsISaINSt8__detail10_Hash_nodeIcLb0EEEEE8allocateERS3_m,"axG",@progbits,_ZNSt16allocator_traitsISaINSt8__detail10_Hash_nodeIcLb0EEEEE8allocateERS3_m,comdat
	.weak	_ZNSt16allocator_traitsISaINSt8__detail10_Hash_nodeIcLb0EEEEE8allocateERS3_m # -- Begin function _ZNSt16allocator_traitsISaINSt8__detail10_Hash_nodeIcLb0EEEEE8allocateERS3_m
	.p2align	4, 0x90
	.type	_ZNSt16allocator_traitsISaINSt8__detail10_Hash_nodeIcLb0EEEEE8allocateERS3_m,@function
_ZNSt16allocator_traitsISaINSt8__detail10_Hash_nodeIcLb0EEEEE8allocateERS3_m: # @_ZNSt16allocator_traitsISaINSt8__detail10_Hash_nodeIcLb0EEEEE8allocateERS3_m
	.cfi_startproc
# %bb.0:
	pushq	%rbp
	.cfi_def_cfa_offset 16
	.cfi_offset %rbp, -16
	movq	%rsp, %rbp
	.cfi_def_cfa_register %rbp
	subq	$32, %rsp
	xorl	%eax, %eax
	movl	%eax, %edx
	movq	%rdi, -8(%rbp)
	movq	%rsi, -16(%rbp)
	movq	-8(%rbp), %rsi
	movq	-16(%rbp), %rdi
	movq	%rdi, -24(%rbp)         # 8-byte Spill
	movq	%rsi, %rdi
	movq	-24(%rbp), %rsi         # 8-byte Reload
	callq	_ZN9__gnu_cxx13new_allocatorINSt8__detail10_Hash_nodeIcLb0EEEE8allocateEmPKv
	addq	$32, %rsp
	popq	%rbp
	retq
.Lfunc_end64:
	.size	_ZNSt16allocator_traitsISaINSt8__detail10_Hash_nodeIcLb0EEEEE8allocateERS3_m, .Lfunc_end64-_ZNSt16allocator_traitsISaINSt8__detail10_Hash_nodeIcLb0EEEEE8allocateERS3_m
	.cfi_endproc
                                        # -- End function
	.section	.text._ZNSt8__detail16_Hashtable_allocISaINS_10_Hash_nodeIcLb0EEEEE17_M_node_allocatorEv,"axG",@progbits,_ZNSt8__detail16_Hashtable_allocISaINS_10_Hash_nodeIcLb0EEEEE17_M_node_allocatorEv,comdat
	.weak	_ZNSt8__detail16_Hashtable_allocISaINS_10_Hash_nodeIcLb0EEEEE17_M_node_allocatorEv # -- Begin function _ZNSt8__detail16_Hashtable_allocISaINS_10_Hash_nodeIcLb0EEEEE17_M_node_allocatorEv
	.p2align	4, 0x90
	.type	_ZNSt8__detail16_Hashtable_allocISaINS_10_Hash_nodeIcLb0EEEEE17_M_node_allocatorEv,@function
_ZNSt8__detail16_Hashtable_allocISaINS_10_Hash_nodeIcLb0EEEEE17_M_node_allocatorEv: # @_ZNSt8__detail16_Hashtable_allocISaINS_10_Hash_nodeIcLb0EEEEE17_M_node_allocatorEv
	.cfi_startproc
# %bb.0:
	pushq	%rbp
	.cfi_def_cfa_offset 16
	.cfi_offset %rbp, -16
	movq	%rsp, %rbp
	.cfi_def_cfa_register %rbp
	subq	$16, %rsp
	movq	%rdi, -8(%rbp)
	movq	-8(%rbp), %rdi
	callq	_ZNSt8__detail21_Hashtable_ebo_helperILi0ESaINS_10_Hash_nodeIcLb0EEEELb1EE6_S_getERS4_
	addq	$16, %rsp
	popq	%rbp
	retq
.Lfunc_end65:
	.size	_ZNSt8__detail16_Hashtable_allocISaINS_10_Hash_nodeIcLb0EEEEE17_M_node_allocatorEv, .Lfunc_end65-_ZNSt8__detail16_Hashtable_allocISaINS_10_Hash_nodeIcLb0EEEEE17_M_node_allocatorEv
	.cfi_endproc
                                        # -- End function
	.section	.text._ZSt11__addressofINSt8__detail10_Hash_nodeIcLb0EEEEPT_RS3_,"axG",@progbits,_ZSt11__addressofINSt8__detail10_Hash_nodeIcLb0EEEEPT_RS3_,comdat
	.weak	_ZSt11__addressofINSt8__detail10_Hash_nodeIcLb0EEEEPT_RS3_ # -- Begin function _ZSt11__addressofINSt8__detail10_Hash_nodeIcLb0EEEEPT_RS3_
	.p2align	4, 0x90
	.type	_ZSt11__addressofINSt8__detail10_Hash_nodeIcLb0EEEEPT_RS3_,@function
_ZSt11__addressofINSt8__detail10_Hash_nodeIcLb0EEEEPT_RS3_: # @_ZSt11__addressofINSt8__detail10_Hash_nodeIcLb0EEEEPT_RS3_
	.cfi_startproc
# %bb.0:
	pushq	%rbp
	.cfi_def_cfa_offset 16
	.cfi_offset %rbp, -16
	movq	%rsp, %rbp
	.cfi_def_cfa_register %rbp
	movq	%rdi, -8(%rbp)
	movq	-8(%rbp), %rax
	popq	%rbp
	retq
.Lfunc_end66:
	.size	_ZSt11__addressofINSt8__detail10_Hash_nodeIcLb0EEEEPT_RS3_, .Lfunc_end66-_ZSt11__addressofINSt8__detail10_Hash_nodeIcLb0EEEEPT_RS3_
	.cfi_endproc
                                        # -- End function
	.section	.text._ZNSaIcEC2INSt8__detail10_Hash_nodeIcLb0EEEEERKSaIT_E,"axG",@progbits,_ZNSaIcEC2INSt8__detail10_Hash_nodeIcLb0EEEEERKSaIT_E,comdat
	.weak	_ZNSaIcEC2INSt8__detail10_Hash_nodeIcLb0EEEEERKSaIT_E # -- Begin function _ZNSaIcEC2INSt8__detail10_Hash_nodeIcLb0EEEEERKSaIT_E
	.p2align	4, 0x90
	.type	_ZNSaIcEC2INSt8__detail10_Hash_nodeIcLb0EEEEERKSaIT_E,@function
_ZNSaIcEC2INSt8__detail10_Hash_nodeIcLb0EEEEERKSaIT_E: # @_ZNSaIcEC2INSt8__detail10_Hash_nodeIcLb0EEEEERKSaIT_E
	.cfi_startproc
# %bb.0:
	pushq	%rbp
	.cfi_def_cfa_offset 16
	.cfi_offset %rbp, -16
	movq	%rsp, %rbp
	.cfi_def_cfa_register %rbp
	subq	$16, %rsp
	movq	%rdi, -8(%rbp)
	movq	%rsi, -16(%rbp)
	movq	-8(%rbp), %rsi
	movq	%rsi, %rdi
	callq	_ZN9__gnu_cxx13new_allocatorIcEC2Ev
	addq	$16, %rsp
	popq	%rbp
	retq
.Lfunc_end67:
	.size	_ZNSaIcEC2INSt8__detail10_Hash_nodeIcLb0EEEEERKSaIT_E, .Lfunc_end67-_ZNSaIcEC2INSt8__detail10_Hash_nodeIcLb0EEEEERKSaIT_E
	.cfi_endproc
                                        # -- End function
	.section	.text._ZNSt8__detail10_Hash_nodeIcLb0EEC2Ev,"axG",@progbits,_ZNSt8__detail10_Hash_nodeIcLb0EEC2Ev,comdat
	.weak	_ZNSt8__detail10_Hash_nodeIcLb0EEC2Ev # -- Begin function _ZNSt8__detail10_Hash_nodeIcLb0EEC2Ev
	.p2align	4, 0x90
	.type	_ZNSt8__detail10_Hash_nodeIcLb0EEC2Ev,@function
_ZNSt8__detail10_Hash_nodeIcLb0EEC2Ev:  # @_ZNSt8__detail10_Hash_nodeIcLb0EEC2Ev
	.cfi_startproc
# %bb.0:
	pushq	%rbp
	.cfi_def_cfa_offset 16
	.cfi_offset %rbp, -16
	movq	%rsp, %rbp
	.cfi_def_cfa_register %rbp
	subq	$16, %rsp
	movq	%rdi, -8(%rbp)
	movq	-8(%rbp), %rdi
	callq	_ZNSt8__detail21_Hash_node_value_baseIcEC2Ev
	addq	$16, %rsp
	popq	%rbp
	retq
.Lfunc_end68:
	.size	_ZNSt8__detail10_Hash_nodeIcLb0EEC2Ev, .Lfunc_end68-_ZNSt8__detail10_Hash_nodeIcLb0EEC2Ev
	.cfi_endproc
                                        # -- End function
	.section	.text._ZNSt16allocator_traitsISaIcEE9constructIcJRKcEEEvRS0_PT_DpOT0_,"axG",@progbits,_ZNSt16allocator_traitsISaIcEE9constructIcJRKcEEEvRS0_PT_DpOT0_,comdat
	.weak	_ZNSt16allocator_traitsISaIcEE9constructIcJRKcEEEvRS0_PT_DpOT0_ # -- Begin function _ZNSt16allocator_traitsISaIcEE9constructIcJRKcEEEvRS0_PT_DpOT0_
	.p2align	4, 0x90
	.type	_ZNSt16allocator_traitsISaIcEE9constructIcJRKcEEEvRS0_PT_DpOT0_,@function
_ZNSt16allocator_traitsISaIcEE9constructIcJRKcEEEvRS0_PT_DpOT0_: # @_ZNSt16allocator_traitsISaIcEE9constructIcJRKcEEEvRS0_PT_DpOT0_
	.cfi_startproc
# %bb.0:
	pushq	%rbp
	.cfi_def_cfa_offset 16
	.cfi_offset %rbp, -16
	movq	%rsp, %rbp
	.cfi_def_cfa_register %rbp
	subq	$48, %rsp
	movq	%rdi, -8(%rbp)
	movq	%rsi, -16(%rbp)
	movq	%rdx, -24(%rbp)
	movq	-8(%rbp), %rdx
	movq	-16(%rbp), %rsi
	movq	-24(%rbp), %rdi
	movq	%rdx, -32(%rbp)         # 8-byte Spill
	movq	%rsi, -40(%rbp)         # 8-byte Spill
	callq	_ZSt7forwardIRKcEOT_RNSt16remove_referenceIS2_E4typeE
	movq	-32(%rbp), %rdi         # 8-byte Reload
	movq	-40(%rbp), %rsi         # 8-byte Reload
	movq	%rax, %rdx
	callq	_ZN9__gnu_cxx13new_allocatorIcE9constructIcJRKcEEEvPT_DpOT0_
	addq	$48, %rsp
	popq	%rbp
	retq
.Lfunc_end69:
	.size	_ZNSt16allocator_traitsISaIcEE9constructIcJRKcEEEvRS0_PT_DpOT0_, .Lfunc_end69-_ZNSt16allocator_traitsISaIcEE9constructIcJRKcEEEvRS0_PT_DpOT0_
	.cfi_endproc
                                        # -- End function
	.section	.text._ZNSt16allocator_traitsISaINSt8__detail10_Hash_nodeIcLb0EEEEE10deallocateERS3_PS2_m,"axG",@progbits,_ZNSt16allocator_traitsISaINSt8__detail10_Hash_nodeIcLb0EEEEE10deallocateERS3_PS2_m,comdat
	.weak	_ZNSt16allocator_traitsISaINSt8__detail10_Hash_nodeIcLb0EEEEE10deallocateERS3_PS2_m # -- Begin function _ZNSt16allocator_traitsISaINSt8__detail10_Hash_nodeIcLb0EEEEE10deallocateERS3_PS2_m
	.p2align	4, 0x90
	.type	_ZNSt16allocator_traitsISaINSt8__detail10_Hash_nodeIcLb0EEEEE10deallocateERS3_PS2_m,@function
_ZNSt16allocator_traitsISaINSt8__detail10_Hash_nodeIcLb0EEEEE10deallocateERS3_PS2_m: # @_ZNSt16allocator_traitsISaINSt8__detail10_Hash_nodeIcLb0EEEEE10deallocateERS3_PS2_m
	.cfi_startproc
# %bb.0:
	pushq	%rbp
	.cfi_def_cfa_offset 16
	.cfi_offset %rbp, -16
	movq	%rsp, %rbp
	.cfi_def_cfa_register %rbp
	subq	$32, %rsp
	movq	%rdi, -8(%rbp)
	movq	%rsi, -16(%rbp)
	movq	%rdx, -24(%rbp)
	movq	-8(%rbp), %rdx
	movq	-16(%rbp), %rsi
	movq	-24(%rbp), %rdi
	movq	%rdi, -32(%rbp)         # 8-byte Spill
	movq	%rdx, %rdi
	movq	-32(%rbp), %rdx         # 8-byte Reload
	callq	_ZN9__gnu_cxx13new_allocatorINSt8__detail10_Hash_nodeIcLb0EEEE10deallocateEPS3_m
	addq	$32, %rsp
	popq	%rbp
	retq
.Lfunc_end70:
	.size	_ZNSt16allocator_traitsISaINSt8__detail10_Hash_nodeIcLb0EEEEE10deallocateERS3_PS2_m, .Lfunc_end70-_ZNSt16allocator_traitsISaINSt8__detail10_Hash_nodeIcLb0EEEEE10deallocateERS3_PS2_m
	.cfi_endproc
                                        # -- End function
	.section	.text._ZN9__gnu_cxx13new_allocatorINSt8__detail10_Hash_nodeIcLb0EEEE8allocateEmPKv,"axG",@progbits,_ZN9__gnu_cxx13new_allocatorINSt8__detail10_Hash_nodeIcLb0EEEE8allocateEmPKv,comdat
	.weak	_ZN9__gnu_cxx13new_allocatorINSt8__detail10_Hash_nodeIcLb0EEEE8allocateEmPKv # -- Begin function _ZN9__gnu_cxx13new_allocatorINSt8__detail10_Hash_nodeIcLb0EEEE8allocateEmPKv
	.p2align	4, 0x90
	.type	_ZN9__gnu_cxx13new_allocatorINSt8__detail10_Hash_nodeIcLb0EEEE8allocateEmPKv,@function
_ZN9__gnu_cxx13new_allocatorINSt8__detail10_Hash_nodeIcLb0EEEE8allocateEmPKv: # @_ZN9__gnu_cxx13new_allocatorINSt8__detail10_Hash_nodeIcLb0EEEE8allocateEmPKv
	.cfi_startproc
# %bb.0:
	pushq	%rbp
	.cfi_def_cfa_offset 16
	.cfi_offset %rbp, -16
	movq	%rsp, %rbp
	.cfi_def_cfa_register %rbp
	subq	$32, %rsp
	movq	%rdi, -8(%rbp)
	movq	%rsi, -16(%rbp)
	movq	%rdx, -24(%rbp)
	movq	-8(%rbp), %rdi
	movq	-16(%rbp), %rdx
	movq	%rdx, -32(%rbp)         # 8-byte Spill
	callq	_ZNK9__gnu_cxx13new_allocatorINSt8__detail10_Hash_nodeIcLb0EEEE8max_sizeEv
	movq	-32(%rbp), %rdx         # 8-byte Reload
	cmpq	%rax, %rdx
	jbe	.LBB71_2
# %bb.1:
	callq	_ZSt17__throw_bad_allocv
.LBB71_2:
	movq	-16(%rbp), %rax
	shlq	$4, %rax
	movq	%rax, %rdi
	callq	_Znwm
	addq	$32, %rsp
	popq	%rbp
	retq
.Lfunc_end71:
	.size	_ZN9__gnu_cxx13new_allocatorINSt8__detail10_Hash_nodeIcLb0EEEE8allocateEmPKv, .Lfunc_end71-_ZN9__gnu_cxx13new_allocatorINSt8__detail10_Hash_nodeIcLb0EEEE8allocateEmPKv
	.cfi_endproc
                                        # -- End function
	.section	.text._ZNK9__gnu_cxx13new_allocatorINSt8__detail10_Hash_nodeIcLb0EEEE8max_sizeEv,"axG",@progbits,_ZNK9__gnu_cxx13new_allocatorINSt8__detail10_Hash_nodeIcLb0EEEE8max_sizeEv,comdat
	.weak	_ZNK9__gnu_cxx13new_allocatorINSt8__detail10_Hash_nodeIcLb0EEEE8max_sizeEv # -- Begin function _ZNK9__gnu_cxx13new_allocatorINSt8__detail10_Hash_nodeIcLb0EEEE8max_sizeEv
	.p2align	4, 0x90
	.type	_ZNK9__gnu_cxx13new_allocatorINSt8__detail10_Hash_nodeIcLb0EEEE8max_sizeEv,@function
_ZNK9__gnu_cxx13new_allocatorINSt8__detail10_Hash_nodeIcLb0EEEE8max_sizeEv: # @_ZNK9__gnu_cxx13new_allocatorINSt8__detail10_Hash_nodeIcLb0EEEE8max_sizeEv
	.cfi_startproc
# %bb.0:
	pushq	%rbp
	.cfi_def_cfa_offset 16
	.cfi_offset %rbp, -16
	movq	%rsp, %rbp
	.cfi_def_cfa_register %rbp
	movabsq	$1152921504606846975, %rax # imm = 0xFFFFFFFFFFFFFFF
	movq	%rdi, -8(%rbp)
	popq	%rbp
	retq
.Lfunc_end72:
	.size	_ZNK9__gnu_cxx13new_allocatorINSt8__detail10_Hash_nodeIcLb0EEEE8max_sizeEv, .Lfunc_end72-_ZNK9__gnu_cxx13new_allocatorINSt8__detail10_Hash_nodeIcLb0EEEE8max_sizeEv
	.cfi_endproc
                                        # -- End function
	.section	.text._ZNSt8__detail21_Hashtable_ebo_helperILi0ESaINS_10_Hash_nodeIcLb0EEEELb1EE6_S_getERS4_,"axG",@progbits,_ZNSt8__detail21_Hashtable_ebo_helperILi0ESaINS_10_Hash_nodeIcLb0EEEELb1EE6_S_getERS4_,comdat
	.weak	_ZNSt8__detail21_Hashtable_ebo_helperILi0ESaINS_10_Hash_nodeIcLb0EEEELb1EE6_S_getERS4_ # -- Begin function _ZNSt8__detail21_Hashtable_ebo_helperILi0ESaINS_10_Hash_nodeIcLb0EEEELb1EE6_S_getERS4_
	.p2align	4, 0x90
	.type	_ZNSt8__detail21_Hashtable_ebo_helperILi0ESaINS_10_Hash_nodeIcLb0EEEELb1EE6_S_getERS4_,@function
_ZNSt8__detail21_Hashtable_ebo_helperILi0ESaINS_10_Hash_nodeIcLb0EEEELb1EE6_S_getERS4_: # @_ZNSt8__detail21_Hashtable_ebo_helperILi0ESaINS_10_Hash_nodeIcLb0EEEELb1EE6_S_getERS4_
	.cfi_startproc
# %bb.0:
	pushq	%rbp
	.cfi_def_cfa_offset 16
	.cfi_offset %rbp, -16
	movq	%rsp, %rbp
	.cfi_def_cfa_register %rbp
	movq	%rdi, -8(%rbp)
	movq	-8(%rbp), %rdi
	movq	%rdi, %rax
	popq	%rbp
	retq
.Lfunc_end73:
	.size	_ZNSt8__detail21_Hashtable_ebo_helperILi0ESaINS_10_Hash_nodeIcLb0EEEELb1EE6_S_getERS4_, .Lfunc_end73-_ZNSt8__detail21_Hashtable_ebo_helperILi0ESaINS_10_Hash_nodeIcLb0EEEELb1EE6_S_getERS4_
	.cfi_endproc
                                        # -- End function
	.section	.text._ZN9__gnu_cxx13new_allocatorIcEC2Ev,"axG",@progbits,_ZN9__gnu_cxx13new_allocatorIcEC2Ev,comdat
	.weak	_ZN9__gnu_cxx13new_allocatorIcEC2Ev # -- Begin function _ZN9__gnu_cxx13new_allocatorIcEC2Ev
	.p2align	4, 0x90
	.type	_ZN9__gnu_cxx13new_allocatorIcEC2Ev,@function
_ZN9__gnu_cxx13new_allocatorIcEC2Ev:    # @_ZN9__gnu_cxx13new_allocatorIcEC2Ev
	.cfi_startproc
# %bb.0:
	pushq	%rbp
	.cfi_def_cfa_offset 16
	.cfi_offset %rbp, -16
	movq	%rsp, %rbp
	.cfi_def_cfa_register %rbp
	movq	%rdi, -8(%rbp)
	popq	%rbp
	retq
.Lfunc_end74:
	.size	_ZN9__gnu_cxx13new_allocatorIcEC2Ev, .Lfunc_end74-_ZN9__gnu_cxx13new_allocatorIcEC2Ev
	.cfi_endproc
                                        # -- End function
	.section	.text._ZNSt8__detail21_Hash_node_value_baseIcEC2Ev,"axG",@progbits,_ZNSt8__detail21_Hash_node_value_baseIcEC2Ev,comdat
	.weak	_ZNSt8__detail21_Hash_node_value_baseIcEC2Ev # -- Begin function _ZNSt8__detail21_Hash_node_value_baseIcEC2Ev
	.p2align	4, 0x90
	.type	_ZNSt8__detail21_Hash_node_value_baseIcEC2Ev,@function
_ZNSt8__detail21_Hash_node_value_baseIcEC2Ev: # @_ZNSt8__detail21_Hash_node_value_baseIcEC2Ev
	.cfi_startproc
# %bb.0:
	pushq	%rbp
	.cfi_def_cfa_offset 16
	.cfi_offset %rbp, -16
	movq	%rsp, %rbp
	.cfi_def_cfa_register %rbp
	subq	$16, %rsp
	movq	%rdi, -8(%rbp)
	movq	-8(%rbp), %rdi
	callq	_ZNSt8__detail15_Hash_node_baseC2Ev
	addq	$16, %rsp
	popq	%rbp
	retq
.Lfunc_end75:
	.size	_ZNSt8__detail21_Hash_node_value_baseIcEC2Ev, .Lfunc_end75-_ZNSt8__detail21_Hash_node_value_baseIcEC2Ev
	.cfi_endproc
                                        # -- End function
	.section	.text._ZN9__gnu_cxx13new_allocatorIcE9constructIcJRKcEEEvPT_DpOT0_,"axG",@progbits,_ZN9__gnu_cxx13new_allocatorIcE9constructIcJRKcEEEvPT_DpOT0_,comdat
	.weak	_ZN9__gnu_cxx13new_allocatorIcE9constructIcJRKcEEEvPT_DpOT0_ # -- Begin function _ZN9__gnu_cxx13new_allocatorIcE9constructIcJRKcEEEvPT_DpOT0_
	.p2align	4, 0x90
	.type	_ZN9__gnu_cxx13new_allocatorIcE9constructIcJRKcEEEvPT_DpOT0_,@function
_ZN9__gnu_cxx13new_allocatorIcE9constructIcJRKcEEEvPT_DpOT0_: # @_ZN9__gnu_cxx13new_allocatorIcE9constructIcJRKcEEEvPT_DpOT0_
	.cfi_startproc
# %bb.0:
	pushq	%rbp
	.cfi_def_cfa_offset 16
	.cfi_offset %rbp, -16
	movq	%rsp, %rbp
	.cfi_def_cfa_register %rbp
	subq	$32, %rsp
	movq	%rdi, -8(%rbp)
	movq	%rsi, -16(%rbp)
	movq	%rdx, -24(%rbp)
	movq	-16(%rbp), %rdx
	movq	-24(%rbp), %rdi
	movq	%rdx, -32(%rbp)         # 8-byte Spill
	callq	_ZSt7forwardIRKcEOT_RNSt16remove_referenceIS2_E4typeE
	movb	(%rax), %cl
	movq	-32(%rbp), %rax         # 8-byte Reload
	movb	%cl, (%rax)
	addq	$32, %rsp
	popq	%rbp
	retq
.Lfunc_end76:
	.size	_ZN9__gnu_cxx13new_allocatorIcE9constructIcJRKcEEEvPT_DpOT0_, .Lfunc_end76-_ZN9__gnu_cxx13new_allocatorIcE9constructIcJRKcEEEvPT_DpOT0_
	.cfi_endproc
                                        # -- End function
	.section	.text._ZN9__gnu_cxx13new_allocatorINSt8__detail10_Hash_nodeIcLb0EEEE10deallocateEPS3_m,"axG",@progbits,_ZN9__gnu_cxx13new_allocatorINSt8__detail10_Hash_nodeIcLb0EEEE10deallocateEPS3_m,comdat
	.weak	_ZN9__gnu_cxx13new_allocatorINSt8__detail10_Hash_nodeIcLb0EEEE10deallocateEPS3_m # -- Begin function _ZN9__gnu_cxx13new_allocatorINSt8__detail10_Hash_nodeIcLb0EEEE10deallocateEPS3_m
	.p2align	4, 0x90
	.type	_ZN9__gnu_cxx13new_allocatorINSt8__detail10_Hash_nodeIcLb0EEEE10deallocateEPS3_m,@function
_ZN9__gnu_cxx13new_allocatorINSt8__detail10_Hash_nodeIcLb0EEEE10deallocateEPS3_m: # @_ZN9__gnu_cxx13new_allocatorINSt8__detail10_Hash_nodeIcLb0EEEE10deallocateEPS3_m
	.cfi_startproc
# %bb.0:
	pushq	%rbp
	.cfi_def_cfa_offset 16
	.cfi_offset %rbp, -16
	movq	%rsp, %rbp
	.cfi_def_cfa_register %rbp
	subq	$32, %rsp
	movq	%rdi, -8(%rbp)
	movq	%rsi, -16(%rbp)
	movq	%rdx, -24(%rbp)
	movq	-16(%rbp), %rdx
	movq	%rdx, %rdi
	callq	_ZdlPv
	addq	$32, %rsp
	popq	%rbp
	retq
.Lfunc_end77:
	.size	_ZN9__gnu_cxx13new_allocatorINSt8__detail10_Hash_nodeIcLb0EEEE10deallocateEPS3_m, .Lfunc_end77-_ZN9__gnu_cxx13new_allocatorINSt8__detail10_Hash_nodeIcLb0EEEE10deallocateEPS3_m
	.cfi_endproc
                                        # -- End function
	.section	.text._ZNKSt8__detail20_Prime_rehash_policy8_M_stateEv,"axG",@progbits,_ZNKSt8__detail20_Prime_rehash_policy8_M_stateEv,comdat
	.weak	_ZNKSt8__detail20_Prime_rehash_policy8_M_stateEv # -- Begin function _ZNKSt8__detail20_Prime_rehash_policy8_M_stateEv
	.p2align	4, 0x90
	.type	_ZNKSt8__detail20_Prime_rehash_policy8_M_stateEv,@function
_ZNKSt8__detail20_Prime_rehash_policy8_M_stateEv: # @_ZNKSt8__detail20_Prime_rehash_policy8_M_stateEv
	.cfi_startproc
# %bb.0:
	pushq	%rbp
	.cfi_def_cfa_offset 16
	.cfi_offset %rbp, -16
	movq	%rsp, %rbp
	.cfi_def_cfa_register %rbp
	movq	%rdi, -8(%rbp)
	movq	-8(%rbp), %rdi
	movq	8(%rdi), %rax
	popq	%rbp
	retq
.Lfunc_end78:
	.size	_ZNKSt8__detail20_Prime_rehash_policy8_M_stateEv, .Lfunc_end78-_ZNKSt8__detail20_Prime_rehash_policy8_M_stateEv
	.cfi_endproc
                                        # -- End function
	.section	.text._ZNSt10_HashtableIccSaIcENSt8__detail9_IdentityESt8equal_toIcESt4hashIcENS1_18_Mod_range_hashingENS1_20_Default_ranged_hashENS1_20_Prime_rehash_policyENS1_17_Hashtable_traitsILb0ELb1ELb1EEEE9_M_rehashEmRKm,"axG",@progbits,_ZNSt10_HashtableIccSaIcENSt8__detail9_IdentityESt8equal_toIcESt4hashIcENS1_18_Mod_range_hashingENS1_20_Default_ranged_hashENS1_20_Prime_rehash_policyENS1_17_Hashtable_traitsILb0ELb1ELb1EEEE9_M_rehashEmRKm,comdat
	.weak	_ZNSt10_HashtableIccSaIcENSt8__detail9_IdentityESt8equal_toIcESt4hashIcENS1_18_Mod_range_hashingENS1_20_Default_ranged_hashENS1_20_Prime_rehash_policyENS1_17_Hashtable_traitsILb0ELb1ELb1EEEE9_M_rehashEmRKm # -- Begin function _ZNSt10_HashtableIccSaIcENSt8__detail9_IdentityESt8equal_toIcESt4hashIcENS1_18_Mod_range_hashingENS1_20_Default_ranged_hashENS1_20_Prime_rehash_policyENS1_17_Hashtable_traitsILb0ELb1ELb1EEEE9_M_rehashEmRKm
	.p2align	4, 0x90
	.type	_ZNSt10_HashtableIccSaIcENSt8__detail9_IdentityESt8equal_toIcESt4hashIcENS1_18_Mod_range_hashingENS1_20_Default_ranged_hashENS1_20_Prime_rehash_policyENS1_17_Hashtable_traitsILb0ELb1ELb1EEEE9_M_rehashEmRKm,@function
_ZNSt10_HashtableIccSaIcENSt8__detail9_IdentityESt8equal_toIcESt4hashIcENS1_18_Mod_range_hashingENS1_20_Default_ranged_hashENS1_20_Prime_rehash_policyENS1_17_Hashtable_traitsILb0ELb1ELb1EEEE9_M_rehashEmRKm: # @_ZNSt10_HashtableIccSaIcENSt8__detail9_IdentityESt8equal_toIcESt4hashIcENS1_18_Mod_range_hashingENS1_20_Default_ranged_hashENS1_20_Prime_rehash_policyENS1_17_Hashtable_traitsILb0ELb1ELb1EEEE9_M_rehashEmRKm
.Lfunc_begin5:
	.cfi_startproc
	.cfi_personality 3, __gxx_personality_v0
	.cfi_lsda 3, .Lexception5
# %bb.0:
	pushq	%rbp
	.cfi_def_cfa_offset 16
	.cfi_offset %rbp, -16
	movq	%rsp, %rbp
	.cfi_def_cfa_register %rbp
	subq	$80, %rsp
	movq	%rdi, -8(%rbp)
	movq	%rsi, -16(%rbp)
	movq	%rdx, -24(%rbp)
	movq	-8(%rbp), %rdx
	movq	-16(%rbp), %rsi
.Ltmp67:
	movq	%rdx, %rdi
	movq	%rdx, -56(%rbp)         # 8-byte Spill
	callq	_ZNSt10_HashtableIccSaIcENSt8__detail9_IdentityESt8equal_toIcESt4hashIcENS1_18_Mod_range_hashingENS1_20_Default_ranged_hashENS1_20_Prime_rehash_policyENS1_17_Hashtable_traitsILb0ELb1ELb1EEEE13_M_rehash_auxEmSt17integral_constantIbLb1EE
.Ltmp68:
	jmp	.LBB79_1
.LBB79_1:
	jmp	.LBB79_7
.LBB79_2:
.Ltmp69:
	movl	%edx, %ecx
	movq	%rax, -40(%rbp)
	movl	%ecx, -44(%rbp)
# %bb.3:
	movq	-40(%rbp), %rdi
	callq	__cxa_begin_catch
	movq	-56(%rbp), %rdi         # 8-byte Reload
	addq	$32, %rdi
	movq	-24(%rbp), %rcx
	movq	(%rcx), %rsi
.Ltmp70:
	movq	%rax, -64(%rbp)         # 8-byte Spill
	callq	_ZNSt8__detail20_Prime_rehash_policy8_M_resetEm
.Ltmp71:
	jmp	.LBB79_4
.LBB79_4:
.Ltmp72:
	callq	__cxa_rethrow
.Ltmp73:
	jmp	.LBB79_10
.LBB79_5:
.Ltmp74:
	movl	%edx, %ecx
	movq	%rax, -40(%rbp)
	movl	%ecx, -44(%rbp)
.Ltmp75:
	callq	__cxa_end_catch
.Ltmp76:
	jmp	.LBB79_6
.LBB79_6:
	jmp	.LBB79_8
.LBB79_7:
	addq	$80, %rsp
	popq	%rbp
	retq
.LBB79_8:
	movq	-40(%rbp), %rdi
	callq	_Unwind_Resume
.LBB79_9:
.Ltmp77:
	movl	%edx, %ecx
	movq	%rax, %rdi
	movl	%ecx, -68(%rbp)         # 4-byte Spill
	callq	__clang_call_terminate
.LBB79_10:
.Lfunc_end79:
	.size	_ZNSt10_HashtableIccSaIcENSt8__detail9_IdentityESt8equal_toIcESt4hashIcENS1_18_Mod_range_hashingENS1_20_Default_ranged_hashENS1_20_Prime_rehash_policyENS1_17_Hashtable_traitsILb0ELb1ELb1EEEE9_M_rehashEmRKm, .Lfunc_end79-_ZNSt10_HashtableIccSaIcENSt8__detail9_IdentityESt8equal_toIcESt4hashIcENS1_18_Mod_range_hashingENS1_20_Default_ranged_hashENS1_20_Prime_rehash_policyENS1_17_Hashtable_traitsILb0ELb1ELb1EEEE9_M_rehashEmRKm
	.cfi_endproc
	.section	.gcc_except_table,"a",@progbits
	.p2align	2
GCC_except_table79:
.Lexception5:
	.byte	255                     # @LPStart Encoding = omit
	.byte	3                       # @TType Encoding = udata4
	.byte	73                      # @TType base offset
	.byte	3                       # Call site Encoding = udata4
	.byte	65                      # Call site table length
	.long	.Ltmp67-.Lfunc_begin5   # >> Call Site 1 <<
	.long	.Ltmp68-.Ltmp67         #   Call between .Ltmp67 and .Ltmp68
	.long	.Ltmp69-.Lfunc_begin5   #     jumps to .Ltmp69
	.byte	1                       #   On action: 1
	.long	.Ltmp68-.Lfunc_begin5   # >> Call Site 2 <<
	.long	.Ltmp70-.Ltmp68         #   Call between .Ltmp68 and .Ltmp70
	.long	0                       #     has no landing pad
	.byte	0                       #   On action: cleanup
	.long	.Ltmp70-.Lfunc_begin5   # >> Call Site 3 <<
	.long	.Ltmp73-.Ltmp70         #   Call between .Ltmp70 and .Ltmp73
	.long	.Ltmp74-.Lfunc_begin5   #     jumps to .Ltmp74
	.byte	0                       #   On action: cleanup
	.long	.Ltmp75-.Lfunc_begin5   # >> Call Site 4 <<
	.long	.Ltmp76-.Ltmp75         #   Call between .Ltmp75 and .Ltmp76
	.long	.Ltmp77-.Lfunc_begin5   #     jumps to .Ltmp77
	.byte	1                       #   On action: 1
	.long	.Ltmp76-.Lfunc_begin5   # >> Call Site 5 <<
	.long	.Lfunc_end79-.Ltmp76    #   Call between .Ltmp76 and .Lfunc_end79
	.long	0                       #     has no landing pad
	.byte	0                       #   On action: cleanup
	.byte	1                       # >> Action Record 1 <<
                                        #   Catch TypeInfo 1
	.byte	0                       #   No further actions
                                        # >> Catch TypeInfos <<
	.long	0                       # TypeInfo 1
	.p2align	2
                                        # -- End function
	.section	.text._ZNKSt8__detail15_Hash_code_baseIccNS_9_IdentityESt4hashIcENS_18_Mod_range_hashingENS_20_Default_ranged_hashELb0EE13_M_store_codeEPNS_10_Hash_nodeIcLb0EEEm,"axG",@progbits,_ZNKSt8__detail15_Hash_code_baseIccNS_9_IdentityESt4hashIcENS_18_Mod_range_hashingENS_20_Default_ranged_hashELb0EE13_M_store_codeEPNS_10_Hash_nodeIcLb0EEEm,comdat
	.weak	_ZNKSt8__detail15_Hash_code_baseIccNS_9_IdentityESt4hashIcENS_18_Mod_range_hashingENS_20_Default_ranged_hashELb0EE13_M_store_codeEPNS_10_Hash_nodeIcLb0EEEm # -- Begin function _ZNKSt8__detail15_Hash_code_baseIccNS_9_IdentityESt4hashIcENS_18_Mod_range_hashingENS_20_Default_ranged_hashELb0EE13_M_store_codeEPNS_10_Hash_nodeIcLb0EEEm
	.p2align	4, 0x90
	.type	_ZNKSt8__detail15_Hash_code_baseIccNS_9_IdentityESt4hashIcENS_18_Mod_range_hashingENS_20_Default_ranged_hashELb0EE13_M_store_codeEPNS_10_Hash_nodeIcLb0EEEm,@function
_ZNKSt8__detail15_Hash_code_baseIccNS_9_IdentityESt4hashIcENS_18_Mod_range_hashingENS_20_Default_ranged_hashELb0EE13_M_store_codeEPNS_10_Hash_nodeIcLb0EEEm: # @_ZNKSt8__detail15_Hash_code_baseIccNS_9_IdentityESt4hashIcENS_18_Mod_range_hashingENS_20_Default_ranged_hashELb0EE13_M_store_codeEPNS_10_Hash_nodeIcLb0EEEm
	.cfi_startproc
# %bb.0:
	pushq	%rbp
	.cfi_def_cfa_offset 16
	.cfi_offset %rbp, -16
	movq	%rsp, %rbp
	.cfi_def_cfa_register %rbp
	movq	%rdi, -8(%rbp)
	movq	%rsi, -16(%rbp)
	movq	%rdx, -24(%rbp)
	popq	%rbp
	retq
.Lfunc_end80:
	.size	_ZNKSt8__detail15_Hash_code_baseIccNS_9_IdentityESt4hashIcENS_18_Mod_range_hashingENS_20_Default_ranged_hashELb0EE13_M_store_codeEPNS_10_Hash_nodeIcLb0EEEm, .Lfunc_end80-_ZNKSt8__detail15_Hash_code_baseIccNS_9_IdentityESt4hashIcENS_18_Mod_range_hashingENS_20_Default_ranged_hashELb0EE13_M_store_codeEPNS_10_Hash_nodeIcLb0EEEm
	.cfi_endproc
                                        # -- End function
	.section	.text._ZNSt10_HashtableIccSaIcENSt8__detail9_IdentityESt8equal_toIcESt4hashIcENS1_18_Mod_range_hashingENS1_20_Default_ranged_hashENS1_20_Prime_rehash_policyENS1_17_Hashtable_traitsILb0ELb1ELb1EEEE22_M_insert_bucket_beginEmPNS1_10_Hash_nodeIcLb0EEE,"axG",@progbits,_ZNSt10_HashtableIccSaIcENSt8__detail9_IdentityESt8equal_toIcESt4hashIcENS1_18_Mod_range_hashingENS1_20_Default_ranged_hashENS1_20_Prime_rehash_policyENS1_17_Hashtable_traitsILb0ELb1ELb1EEEE22_M_insert_bucket_beginEmPNS1_10_Hash_nodeIcLb0EEE,comdat
	.weak	_ZNSt10_HashtableIccSaIcENSt8__detail9_IdentityESt8equal_toIcESt4hashIcENS1_18_Mod_range_hashingENS1_20_Default_ranged_hashENS1_20_Prime_rehash_policyENS1_17_Hashtable_traitsILb0ELb1ELb1EEEE22_M_insert_bucket_beginEmPNS1_10_Hash_nodeIcLb0EEE # -- Begin function _ZNSt10_HashtableIccSaIcENSt8__detail9_IdentityESt8equal_toIcESt4hashIcENS1_18_Mod_range_hashingENS1_20_Default_ranged_hashENS1_20_Prime_rehash_policyENS1_17_Hashtable_traitsILb0ELb1ELb1EEEE22_M_insert_bucket_beginEmPNS1_10_Hash_nodeIcLb0EEE
	.p2align	4, 0x90
	.type	_ZNSt10_HashtableIccSaIcENSt8__detail9_IdentityESt8equal_toIcESt4hashIcENS1_18_Mod_range_hashingENS1_20_Default_ranged_hashENS1_20_Prime_rehash_policyENS1_17_Hashtable_traitsILb0ELb1ELb1EEEE22_M_insert_bucket_beginEmPNS1_10_Hash_nodeIcLb0EEE,@function
_ZNSt10_HashtableIccSaIcENSt8__detail9_IdentityESt8equal_toIcESt4hashIcENS1_18_Mod_range_hashingENS1_20_Default_ranged_hashENS1_20_Prime_rehash_policyENS1_17_Hashtable_traitsILb0ELb1ELb1EEEE22_M_insert_bucket_beginEmPNS1_10_Hash_nodeIcLb0EEE: # @_ZNSt10_HashtableIccSaIcENSt8__detail9_IdentityESt8equal_toIcESt4hashIcENS1_18_Mod_range_hashingENS1_20_Default_ranged_hashENS1_20_Prime_rehash_policyENS1_17_Hashtable_traitsILb0ELb1ELb1EEEE22_M_insert_bucket_beginEmPNS1_10_Hash_nodeIcLb0EEE
	.cfi_startproc
# %bb.0:
	pushq	%rbp
	.cfi_def_cfa_offset 16
	.cfi_offset %rbp, -16
	movq	%rsp, %rbp
	.cfi_def_cfa_register %rbp
	subq	$48, %rsp
	movq	%rdi, -8(%rbp)
	movq	%rsi, -16(%rbp)
	movq	%rdx, -24(%rbp)
	movq	-8(%rbp), %rdx
	movq	(%rdx), %rsi
	movq	-16(%rbp), %rdi
	cmpq	$0, (%rsi,%rdi,8)
	movq	%rdx, -32(%rbp)         # 8-byte Spill
	je	.LBB81_2
# %bb.1:
	movq	-32(%rbp), %rax         # 8-byte Reload
	movq	(%rax), %rcx
	movq	-16(%rbp), %rdx
	movq	(%rcx,%rdx,8), %rcx
	movq	(%rcx), %rcx
	movq	-24(%rbp), %rdx
	movq	%rcx, (%rdx)
	movq	-24(%rbp), %rcx
	movq	(%rax), %rdx
	movq	-16(%rbp), %rsi
	movq	(%rdx,%rsi,8), %rdx
	movq	%rcx, (%rdx)
	jmp	.LBB81_5
.LBB81_2:
	movq	-32(%rbp), %rax         # 8-byte Reload
	movq	16(%rax), %rcx
	movq	-24(%rbp), %rdx
	movq	%rcx, (%rdx)
	movq	-24(%rbp), %rcx
	movq	%rcx, 16(%rax)
	movq	-24(%rbp), %rcx
	cmpq	$0, (%rcx)
	je	.LBB81_4
# %bb.3:
	movq	-24(%rbp), %rax
	movq	-32(%rbp), %rcx         # 8-byte Reload
	movq	(%rcx), %rdx
	movq	-24(%rbp), %rdi
	movq	%rax, -40(%rbp)         # 8-byte Spill
	movq	%rdx, -48(%rbp)         # 8-byte Spill
	callq	_ZNKSt8__detail10_Hash_nodeIcLb0EE7_M_nextEv
	movq	-32(%rbp), %rdi         # 8-byte Reload
	movq	%rax, %rsi
	callq	_ZNKSt10_HashtableIccSaIcENSt8__detail9_IdentityESt8equal_toIcESt4hashIcENS1_18_Mod_range_hashingENS1_20_Default_ranged_hashENS1_20_Prime_rehash_policyENS1_17_Hashtable_traitsILb0ELb1ELb1EEEE15_M_bucket_indexEPNS1_10_Hash_nodeIcLb0EEE
	movq	-48(%rbp), %rcx         # 8-byte Reload
	movq	-40(%rbp), %rdx         # 8-byte Reload
	movq	%rdx, (%rcx,%rax,8)
.LBB81_4:
	movq	-32(%rbp), %rax         # 8-byte Reload
	addq	$16, %rax
	movq	-32(%rbp), %rcx         # 8-byte Reload
	movq	(%rcx), %rdx
	movq	-16(%rbp), %rsi
	movq	%rax, (%rdx,%rsi,8)
.LBB81_5:
	addq	$48, %rsp
	popq	%rbp
	retq
.Lfunc_end81:
	.size	_ZNSt10_HashtableIccSaIcENSt8__detail9_IdentityESt8equal_toIcESt4hashIcENS1_18_Mod_range_hashingENS1_20_Default_ranged_hashENS1_20_Prime_rehash_policyENS1_17_Hashtable_traitsILb0ELb1ELb1EEEE22_M_insert_bucket_beginEmPNS1_10_Hash_nodeIcLb0EEE, .Lfunc_end81-_ZNSt10_HashtableIccSaIcENSt8__detail9_IdentityESt8equal_toIcESt4hashIcENS1_18_Mod_range_hashingENS1_20_Default_ranged_hashENS1_20_Prime_rehash_policyENS1_17_Hashtable_traitsILb0ELb1ELb1EEEE22_M_insert_bucket_beginEmPNS1_10_Hash_nodeIcLb0EEE
	.cfi_endproc
                                        # -- End function
	.section	.text._ZNSt8__detail16_Hashtable_allocISaINS_10_Hash_nodeIcLb0EEEEE18_M_deallocate_nodeEPS2_,"axG",@progbits,_ZNSt8__detail16_Hashtable_allocISaINS_10_Hash_nodeIcLb0EEEEE18_M_deallocate_nodeEPS2_,comdat
	.weak	_ZNSt8__detail16_Hashtable_allocISaINS_10_Hash_nodeIcLb0EEEEE18_M_deallocate_nodeEPS2_ # -- Begin function _ZNSt8__detail16_Hashtable_allocISaINS_10_Hash_nodeIcLb0EEEEE18_M_deallocate_nodeEPS2_
	.p2align	4, 0x90
	.type	_ZNSt8__detail16_Hashtable_allocISaINS_10_Hash_nodeIcLb0EEEEE18_M_deallocate_nodeEPS2_,@function
_ZNSt8__detail16_Hashtable_allocISaINS_10_Hash_nodeIcLb0EEEEE18_M_deallocate_nodeEPS2_: # @_ZNSt8__detail16_Hashtable_allocISaINS_10_Hash_nodeIcLb0EEEEE18_M_deallocate_nodeEPS2_
.Lfunc_begin6:
	.cfi_startproc
	.cfi_personality 3, __gxx_personality_v0
	.cfi_lsda 3, .Lexception6
# %bb.0:
	pushq	%rbp
	.cfi_def_cfa_offset 16
	.cfi_offset %rbp, -16
	movq	%rsp, %rbp
	.cfi_def_cfa_register %rbp
	subq	$80, %rsp
	movq	%rdi, -8(%rbp)
	movq	%rsi, -16(%rbp)
	movq	-8(%rbp), %rsi
	movq	-16(%rbp), %rdi
	movq	%rsi, -56(%rbp)         # 8-byte Spill
	callq	_ZNSt14pointer_traitsIPNSt8__detail10_Hash_nodeIcLb0EEEE10pointer_toERS2_
	movq	%rax, -24(%rbp)
	movq	-56(%rbp), %rdi         # 8-byte Reload
	callq	_ZNSt8__detail16_Hashtable_allocISaINS_10_Hash_nodeIcLb0EEEEE17_M_node_allocatorEv
	leaq	-32(%rbp), %rsi
	movq	%rsi, %rdi
	movq	%rsi, -64(%rbp)         # 8-byte Spill
	movq	%rax, %rsi
	callq	_ZNSaIcEC2INSt8__detail10_Hash_nodeIcLb0EEEEERKSaIT_E
	movq	-16(%rbp), %rdi
	callq	_ZNSt8__detail21_Hash_node_value_baseIcE9_M_valptrEv
.Ltmp78:
	movq	-64(%rbp), %rdi         # 8-byte Reload
	movq	%rax, %rsi
	callq	_ZNSt16allocator_traitsISaIcEE7destroyIcEEvRS0_PT_
.Ltmp79:
	jmp	.LBB82_1
.LBB82_1:
.Ltmp80:
	movq	-56(%rbp), %rdi         # 8-byte Reload
	callq	_ZNSt8__detail16_Hashtable_allocISaINS_10_Hash_nodeIcLb0EEEEE17_M_node_allocatorEv
.Ltmp81:
	movq	%rax, -72(%rbp)         # 8-byte Spill
	jmp	.LBB82_2
.LBB82_2:
	movq	-24(%rbp), %rsi
.Ltmp82:
	movl	$1, %eax
	movl	%eax, %edx
	movq	-72(%rbp), %rdi         # 8-byte Reload
	callq	_ZNSt16allocator_traitsISaINSt8__detail10_Hash_nodeIcLb0EEEEE10deallocateERS3_PS2_m
.Ltmp83:
	jmp	.LBB82_3
.LBB82_3:
	leaq	-32(%rbp), %rdi
	callq	_ZNSaIcED1Ev
	addq	$80, %rsp
	popq	%rbp
	retq
.LBB82_4:
.Ltmp84:
	leaq	-32(%rbp), %rdi
	movl	%edx, %ecx
	movq	%rax, -40(%rbp)
	movl	%ecx, -44(%rbp)
	callq	_ZNSaIcED1Ev
# %bb.5:
	movq	-40(%rbp), %rdi
	callq	_Unwind_Resume
.Lfunc_end82:
	.size	_ZNSt8__detail16_Hashtable_allocISaINS_10_Hash_nodeIcLb0EEEEE18_M_deallocate_nodeEPS2_, .Lfunc_end82-_ZNSt8__detail16_Hashtable_allocISaINS_10_Hash_nodeIcLb0EEEEE18_M_deallocate_nodeEPS2_
	.cfi_endproc
	.section	.gcc_except_table,"a",@progbits
	.p2align	2
GCC_except_table82:
.Lexception6:
	.byte	255                     # @LPStart Encoding = omit
	.byte	3                       # @TType Encoding = udata4
	.byte	41                      # @TType base offset
	.byte	3                       # Call site Encoding = udata4
	.byte	39                      # Call site table length
	.long	.Lfunc_begin6-.Lfunc_begin6 # >> Call Site 1 <<
	.long	.Ltmp78-.Lfunc_begin6   #   Call between .Lfunc_begin6 and .Ltmp78
	.long	0                       #     has no landing pad
	.byte	0                       #   On action: cleanup
	.long	.Ltmp78-.Lfunc_begin6   # >> Call Site 2 <<
	.long	.Ltmp83-.Ltmp78         #   Call between .Ltmp78 and .Ltmp83
	.long	.Ltmp84-.Lfunc_begin6   #     jumps to .Ltmp84
	.byte	0                       #   On action: cleanup
	.long	.Ltmp83-.Lfunc_begin6   # >> Call Site 3 <<
	.long	.Lfunc_end82-.Ltmp83    #   Call between .Ltmp83 and .Lfunc_end82
	.long	0                       #     has no landing pad
	.byte	0                       #   On action: cleanup
	.p2align	2
                                        # -- End function
	.section	.text._ZNSt10_HashtableIccSaIcENSt8__detail9_IdentityESt8equal_toIcESt4hashIcENS1_18_Mod_range_hashingENS1_20_Default_ranged_hashENS1_20_Prime_rehash_policyENS1_17_Hashtable_traitsILb0ELb1ELb1EEEE13_M_rehash_auxEmSt17integral_constantIbLb1EE,"axG",@progbits,_ZNSt10_HashtableIccSaIcENSt8__detail9_IdentityESt8equal_toIcESt4hashIcENS1_18_Mod_range_hashingENS1_20_Default_ranged_hashENS1_20_Prime_rehash_policyENS1_17_Hashtable_traitsILb0ELb1ELb1EEEE13_M_rehash_auxEmSt17integral_constantIbLb1EE,comdat
	.weak	_ZNSt10_HashtableIccSaIcENSt8__detail9_IdentityESt8equal_toIcESt4hashIcENS1_18_Mod_range_hashingENS1_20_Default_ranged_hashENS1_20_Prime_rehash_policyENS1_17_Hashtable_traitsILb0ELb1ELb1EEEE13_M_rehash_auxEmSt17integral_constantIbLb1EE # -- Begin function _ZNSt10_HashtableIccSaIcENSt8__detail9_IdentityESt8equal_toIcESt4hashIcENS1_18_Mod_range_hashingENS1_20_Default_ranged_hashENS1_20_Prime_rehash_policyENS1_17_Hashtable_traitsILb0ELb1ELb1EEEE13_M_rehash_auxEmSt17integral_constantIbLb1EE
	.p2align	4, 0x90
	.type	_ZNSt10_HashtableIccSaIcENSt8__detail9_IdentityESt8equal_toIcESt4hashIcENS1_18_Mod_range_hashingENS1_20_Default_ranged_hashENS1_20_Prime_rehash_policyENS1_17_Hashtable_traitsILb0ELb1ELb1EEEE13_M_rehash_auxEmSt17integral_constantIbLb1EE,@function
_ZNSt10_HashtableIccSaIcENSt8__detail9_IdentityESt8equal_toIcESt4hashIcENS1_18_Mod_range_hashingENS1_20_Default_ranged_hashENS1_20_Prime_rehash_policyENS1_17_Hashtable_traitsILb0ELb1ELb1EEEE13_M_rehash_auxEmSt17integral_constantIbLb1EE: # @_ZNSt10_HashtableIccSaIcENSt8__detail9_IdentityESt8equal_toIcESt4hashIcENS1_18_Mod_range_hashingENS1_20_Default_ranged_hashENS1_20_Prime_rehash_policyENS1_17_Hashtable_traitsILb0ELb1ELb1EEEE13_M_rehash_auxEmSt17integral_constantIbLb1EE
	.cfi_startproc
# %bb.0:
	pushq	%rbp
	.cfi_def_cfa_offset 16
	.cfi_offset %rbp, -16
	movq	%rsp, %rbp
	.cfi_def_cfa_register %rbp
	subq	$80, %rsp
	movq	%rdi, -16(%rbp)
	movq	%rsi, -24(%rbp)
	movq	-16(%rbp), %rsi
	movq	-24(%rbp), %rdi
	movq	%rdi, -72(%rbp)         # 8-byte Spill
	movq	%rsi, %rdi
	movq	-72(%rbp), %rax         # 8-byte Reload
	movq	%rsi, -80(%rbp)         # 8-byte Spill
	movq	%rax, %rsi
	callq	_ZNSt10_HashtableIccSaIcENSt8__detail9_IdentityESt8equal_toIcESt4hashIcENS1_18_Mod_range_hashingENS1_20_Default_ranged_hashENS1_20_Prime_rehash_policyENS1_17_Hashtable_traitsILb0ELb1ELb1EEEE19_M_allocate_bucketsEm
	movq	%rax, -32(%rbp)
	movq	-80(%rbp), %rdi         # 8-byte Reload
	callq	_ZNKSt10_HashtableIccSaIcENSt8__detail9_IdentityESt8equal_toIcESt4hashIcENS1_18_Mod_range_hashingENS1_20_Default_ranged_hashENS1_20_Prime_rehash_policyENS1_17_Hashtable_traitsILb0ELb1ELb1EEEE8_M_beginEv
	movq	%rax, -40(%rbp)
	movq	-80(%rbp), %rax         # 8-byte Reload
	movq	$0, 16(%rax)
	movq	$0, -48(%rbp)
.LBB83_1:                               # =>This Inner Loop Header: Depth=1
	cmpq	$0, -40(%rbp)
	je	.LBB83_8
# %bb.2:                                #   in Loop: Header=BB83_1 Depth=1
	movq	-40(%rbp), %rdi
	callq	_ZNKSt8__detail10_Hash_nodeIcLb0EE7_M_nextEv
	movq	%rax, -56(%rbp)
	movq	-80(%rbp), %rax         # 8-byte Reload
	movq	-40(%rbp), %rsi
	movq	-24(%rbp), %rdx
	movq	%rax, %rdi
	callq	_ZNKSt8__detail15_Hash_code_baseIccNS_9_IdentityESt4hashIcENS_18_Mod_range_hashingENS_20_Default_ranged_hashELb0EE15_M_bucket_indexEPKNS_10_Hash_nodeIcLb0EEEm
	movq	%rax, -64(%rbp)
	movq	-32(%rbp), %rax
	movq	-64(%rbp), %rdx
	cmpq	$0, (%rax,%rdx,8)
	jne	.LBB83_6
# %bb.3:                                #   in Loop: Header=BB83_1 Depth=1
	movq	-80(%rbp), %rax         # 8-byte Reload
	movq	16(%rax), %rcx
	movq	-40(%rbp), %rdx
	movq	%rcx, (%rdx)
	movq	-40(%rbp), %rcx
	movq	%rcx, 16(%rax)
	addq	$16, %rax
	movq	-32(%rbp), %rcx
	movq	-64(%rbp), %rdx
	movq	%rax, (%rcx,%rdx,8)
	movq	-40(%rbp), %rax
	cmpq	$0, (%rax)
	je	.LBB83_5
# %bb.4:                                #   in Loop: Header=BB83_1 Depth=1
	movq	-40(%rbp), %rax
	movq	-32(%rbp), %rcx
	movq	-48(%rbp), %rdx
	movq	%rax, (%rcx,%rdx,8)
.LBB83_5:                               #   in Loop: Header=BB83_1 Depth=1
	movq	-64(%rbp), %rax
	movq	%rax, -48(%rbp)
	jmp	.LBB83_7
.LBB83_6:                               #   in Loop: Header=BB83_1 Depth=1
	movq	-32(%rbp), %rax
	movq	-64(%rbp), %rcx
	movq	(%rax,%rcx,8), %rax
	movq	(%rax), %rax
	movq	-40(%rbp), %rcx
	movq	%rax, (%rcx)
	movq	-40(%rbp), %rax
	movq	-32(%rbp), %rcx
	movq	-64(%rbp), %rdx
	movq	(%rcx,%rdx,8), %rcx
	movq	%rax, (%rcx)
.LBB83_7:                               #   in Loop: Header=BB83_1 Depth=1
	movq	-56(%rbp), %rax
	movq	%rax, -40(%rbp)
	jmp	.LBB83_1
.LBB83_8:
	movq	-80(%rbp), %rdi         # 8-byte Reload
	callq	_ZNSt10_HashtableIccSaIcENSt8__detail9_IdentityESt8equal_toIcESt4hashIcENS1_18_Mod_range_hashingENS1_20_Default_ranged_hashENS1_20_Prime_rehash_policyENS1_17_Hashtable_traitsILb0ELb1ELb1EEEE21_M_deallocate_bucketsEv
	movq	-24(%rbp), %rdi
	movq	-80(%rbp), %rax         # 8-byte Reload
	movq	%rdi, 8(%rax)
	movq	-32(%rbp), %rdi
	movq	%rdi, (%rax)
	addq	$80, %rsp
	popq	%rbp
	retq
.Lfunc_end83:
	.size	_ZNSt10_HashtableIccSaIcENSt8__detail9_IdentityESt8equal_toIcESt4hashIcENS1_18_Mod_range_hashingENS1_20_Default_ranged_hashENS1_20_Prime_rehash_policyENS1_17_Hashtable_traitsILb0ELb1ELb1EEEE13_M_rehash_auxEmSt17integral_constantIbLb1EE, .Lfunc_end83-_ZNSt10_HashtableIccSaIcENSt8__detail9_IdentityESt8equal_toIcESt4hashIcENS1_18_Mod_range_hashingENS1_20_Default_ranged_hashENS1_20_Prime_rehash_policyENS1_17_Hashtable_traitsILb0ELb1ELb1EEEE13_M_rehash_auxEmSt17integral_constantIbLb1EE
	.cfi_endproc
                                        # -- End function
	.section	.text._ZNSt8__detail20_Prime_rehash_policy8_M_resetEm,"axG",@progbits,_ZNSt8__detail20_Prime_rehash_policy8_M_resetEm,comdat
	.weak	_ZNSt8__detail20_Prime_rehash_policy8_M_resetEm # -- Begin function _ZNSt8__detail20_Prime_rehash_policy8_M_resetEm
	.p2align	4, 0x90
	.type	_ZNSt8__detail20_Prime_rehash_policy8_M_resetEm,@function
_ZNSt8__detail20_Prime_rehash_policy8_M_resetEm: # @_ZNSt8__detail20_Prime_rehash_policy8_M_resetEm
	.cfi_startproc
# %bb.0:
	pushq	%rbp
	.cfi_def_cfa_offset 16
	.cfi_offset %rbp, -16
	movq	%rsp, %rbp
	.cfi_def_cfa_register %rbp
	movq	%rdi, -8(%rbp)
	movq	%rsi, -16(%rbp)
	movq	-8(%rbp), %rsi
	movq	-16(%rbp), %rdi
	movq	%rdi, 8(%rsi)
	popq	%rbp
	retq
.Lfunc_end84:
	.size	_ZNSt8__detail20_Prime_rehash_policy8_M_resetEm, .Lfunc_end84-_ZNSt8__detail20_Prime_rehash_policy8_M_resetEm
	.cfi_endproc
                                        # -- End function
	.section	.text._ZNSt10_HashtableIccSaIcENSt8__detail9_IdentityESt8equal_toIcESt4hashIcENS1_18_Mod_range_hashingENS1_20_Default_ranged_hashENS1_20_Prime_rehash_policyENS1_17_Hashtable_traitsILb0ELb1ELb1EEEE19_M_allocate_bucketsEm,"axG",@progbits,_ZNSt10_HashtableIccSaIcENSt8__detail9_IdentityESt8equal_toIcESt4hashIcENS1_18_Mod_range_hashingENS1_20_Default_ranged_hashENS1_20_Prime_rehash_policyENS1_17_Hashtable_traitsILb0ELb1ELb1EEEE19_M_allocate_bucketsEm,comdat
	.weak	_ZNSt10_HashtableIccSaIcENSt8__detail9_IdentityESt8equal_toIcESt4hashIcENS1_18_Mod_range_hashingENS1_20_Default_ranged_hashENS1_20_Prime_rehash_policyENS1_17_Hashtable_traitsILb0ELb1ELb1EEEE19_M_allocate_bucketsEm # -- Begin function _ZNSt10_HashtableIccSaIcENSt8__detail9_IdentityESt8equal_toIcESt4hashIcENS1_18_Mod_range_hashingENS1_20_Default_ranged_hashENS1_20_Prime_rehash_policyENS1_17_Hashtable_traitsILb0ELb1ELb1EEEE19_M_allocate_bucketsEm
	.p2align	4, 0x90
	.type	_ZNSt10_HashtableIccSaIcENSt8__detail9_IdentityESt8equal_toIcESt4hashIcENS1_18_Mod_range_hashingENS1_20_Default_ranged_hashENS1_20_Prime_rehash_policyENS1_17_Hashtable_traitsILb0ELb1ELb1EEEE19_M_allocate_bucketsEm,@function
_ZNSt10_HashtableIccSaIcENSt8__detail9_IdentityESt8equal_toIcESt4hashIcENS1_18_Mod_range_hashingENS1_20_Default_ranged_hashENS1_20_Prime_rehash_policyENS1_17_Hashtable_traitsILb0ELb1ELb1EEEE19_M_allocate_bucketsEm: # @_ZNSt10_HashtableIccSaIcENSt8__detail9_IdentityESt8equal_toIcESt4hashIcENS1_18_Mod_range_hashingENS1_20_Default_ranged_hashENS1_20_Prime_rehash_policyENS1_17_Hashtable_traitsILb0ELb1ELb1EEEE19_M_allocate_bucketsEm
	.cfi_startproc
# %bb.0:
	pushq	%rbp
	.cfi_def_cfa_offset 16
	.cfi_offset %rbp, -16
	movq	%rsp, %rbp
	.cfi_def_cfa_register %rbp
	subq	$32, %rsp
	movq	%rdi, -16(%rbp)
	movq	%rsi, -24(%rbp)
	movq	-16(%rbp), %rsi
	cmpq	$1, -24(%rbp)
	movq	%rsi, -32(%rbp)         # 8-byte Spill
	jne	.LBB85_2
# %bb.1:
	movq	-32(%rbp), %rax         # 8-byte Reload
	movq	$0, 48(%rax)
	addq	$48, %rax
	movq	%rax, -8(%rbp)
	jmp	.LBB85_3
.LBB85_2:
	movq	-32(%rbp), %rax         # 8-byte Reload
	movq	-24(%rbp), %rsi
	movq	%rax, %rdi
	callq	_ZNSt8__detail16_Hashtable_allocISaINS_10_Hash_nodeIcLb0EEEEE19_M_allocate_bucketsEm
	movq	%rax, -8(%rbp)
.LBB85_3:
	movq	-8(%rbp), %rax
	addq	$32, %rsp
	popq	%rbp
	retq
.Lfunc_end85:
	.size	_ZNSt10_HashtableIccSaIcENSt8__detail9_IdentityESt8equal_toIcESt4hashIcENS1_18_Mod_range_hashingENS1_20_Default_ranged_hashENS1_20_Prime_rehash_policyENS1_17_Hashtable_traitsILb0ELb1ELb1EEEE19_M_allocate_bucketsEm, .Lfunc_end85-_ZNSt10_HashtableIccSaIcENSt8__detail9_IdentityESt8equal_toIcESt4hashIcENS1_18_Mod_range_hashingENS1_20_Default_ranged_hashENS1_20_Prime_rehash_policyENS1_17_Hashtable_traitsILb0ELb1ELb1EEEE19_M_allocate_bucketsEm
	.cfi_endproc
                                        # -- End function
	.section	.text._ZNKSt10_HashtableIccSaIcENSt8__detail9_IdentityESt8equal_toIcESt4hashIcENS1_18_Mod_range_hashingENS1_20_Default_ranged_hashENS1_20_Prime_rehash_policyENS1_17_Hashtable_traitsILb0ELb1ELb1EEEE8_M_beginEv,"axG",@progbits,_ZNKSt10_HashtableIccSaIcENSt8__detail9_IdentityESt8equal_toIcESt4hashIcENS1_18_Mod_range_hashingENS1_20_Default_ranged_hashENS1_20_Prime_rehash_policyENS1_17_Hashtable_traitsILb0ELb1ELb1EEEE8_M_beginEv,comdat
	.weak	_ZNKSt10_HashtableIccSaIcENSt8__detail9_IdentityESt8equal_toIcESt4hashIcENS1_18_Mod_range_hashingENS1_20_Default_ranged_hashENS1_20_Prime_rehash_policyENS1_17_Hashtable_traitsILb0ELb1ELb1EEEE8_M_beginEv # -- Begin function _ZNKSt10_HashtableIccSaIcENSt8__detail9_IdentityESt8equal_toIcESt4hashIcENS1_18_Mod_range_hashingENS1_20_Default_ranged_hashENS1_20_Prime_rehash_policyENS1_17_Hashtable_traitsILb0ELb1ELb1EEEE8_M_beginEv
	.p2align	4, 0x90
	.type	_ZNKSt10_HashtableIccSaIcENSt8__detail9_IdentityESt8equal_toIcESt4hashIcENS1_18_Mod_range_hashingENS1_20_Default_ranged_hashENS1_20_Prime_rehash_policyENS1_17_Hashtable_traitsILb0ELb1ELb1EEEE8_M_beginEv,@function
_ZNKSt10_HashtableIccSaIcENSt8__detail9_IdentityESt8equal_toIcESt4hashIcENS1_18_Mod_range_hashingENS1_20_Default_ranged_hashENS1_20_Prime_rehash_policyENS1_17_Hashtable_traitsILb0ELb1ELb1EEEE8_M_beginEv: # @_ZNKSt10_HashtableIccSaIcENSt8__detail9_IdentityESt8equal_toIcESt4hashIcENS1_18_Mod_range_hashingENS1_20_Default_ranged_hashENS1_20_Prime_rehash_policyENS1_17_Hashtable_traitsILb0ELb1ELb1EEEE8_M_beginEv
	.cfi_startproc
# %bb.0:
	pushq	%rbp
	.cfi_def_cfa_offset 16
	.cfi_offset %rbp, -16
	movq	%rsp, %rbp
	.cfi_def_cfa_register %rbp
	movq	%rdi, -8(%rbp)
	movq	-8(%rbp), %rdi
	movq	16(%rdi), %rdi
	movq	%rdi, %rax
	popq	%rbp
	retq
.Lfunc_end86:
	.size	_ZNKSt10_HashtableIccSaIcENSt8__detail9_IdentityESt8equal_toIcESt4hashIcENS1_18_Mod_range_hashingENS1_20_Default_ranged_hashENS1_20_Prime_rehash_policyENS1_17_Hashtable_traitsILb0ELb1ELb1EEEE8_M_beginEv, .Lfunc_end86-_ZNKSt10_HashtableIccSaIcENSt8__detail9_IdentityESt8equal_toIcESt4hashIcENS1_18_Mod_range_hashingENS1_20_Default_ranged_hashENS1_20_Prime_rehash_policyENS1_17_Hashtable_traitsILb0ELb1ELb1EEEE8_M_beginEv
	.cfi_endproc
                                        # -- End function
	.section	.text._ZNSt10_HashtableIccSaIcENSt8__detail9_IdentityESt8equal_toIcESt4hashIcENS1_18_Mod_range_hashingENS1_20_Default_ranged_hashENS1_20_Prime_rehash_policyENS1_17_Hashtable_traitsILb0ELb1ELb1EEEE21_M_deallocate_bucketsEv,"axG",@progbits,_ZNSt10_HashtableIccSaIcENSt8__detail9_IdentityESt8equal_toIcESt4hashIcENS1_18_Mod_range_hashingENS1_20_Default_ranged_hashENS1_20_Prime_rehash_policyENS1_17_Hashtable_traitsILb0ELb1ELb1EEEE21_M_deallocate_bucketsEv,comdat
	.weak	_ZNSt10_HashtableIccSaIcENSt8__detail9_IdentityESt8equal_toIcESt4hashIcENS1_18_Mod_range_hashingENS1_20_Default_ranged_hashENS1_20_Prime_rehash_policyENS1_17_Hashtable_traitsILb0ELb1ELb1EEEE21_M_deallocate_bucketsEv # -- Begin function _ZNSt10_HashtableIccSaIcENSt8__detail9_IdentityESt8equal_toIcESt4hashIcENS1_18_Mod_range_hashingENS1_20_Default_ranged_hashENS1_20_Prime_rehash_policyENS1_17_Hashtable_traitsILb0ELb1ELb1EEEE21_M_deallocate_bucketsEv
	.p2align	4, 0x90
	.type	_ZNSt10_HashtableIccSaIcENSt8__detail9_IdentityESt8equal_toIcESt4hashIcENS1_18_Mod_range_hashingENS1_20_Default_ranged_hashENS1_20_Prime_rehash_policyENS1_17_Hashtable_traitsILb0ELb1ELb1EEEE21_M_deallocate_bucketsEv,@function
_ZNSt10_HashtableIccSaIcENSt8__detail9_IdentityESt8equal_toIcESt4hashIcENS1_18_Mod_range_hashingENS1_20_Default_ranged_hashENS1_20_Prime_rehash_policyENS1_17_Hashtable_traitsILb0ELb1ELb1EEEE21_M_deallocate_bucketsEv: # @_ZNSt10_HashtableIccSaIcENSt8__detail9_IdentityESt8equal_toIcESt4hashIcENS1_18_Mod_range_hashingENS1_20_Default_ranged_hashENS1_20_Prime_rehash_policyENS1_17_Hashtable_traitsILb0ELb1ELb1EEEE21_M_deallocate_bucketsEv
	.cfi_startproc
# %bb.0:
	pushq	%rbp
	.cfi_def_cfa_offset 16
	.cfi_offset %rbp, -16
	movq	%rsp, %rbp
	.cfi_def_cfa_register %rbp
	subq	$16, %rsp
	movq	%rdi, -8(%rbp)
	movq	-8(%rbp), %rdi
	movq	(%rdi), %rsi
	movq	8(%rdi), %rdx
	callq	_ZNSt10_HashtableIccSaIcENSt8__detail9_IdentityESt8equal_toIcESt4hashIcENS1_18_Mod_range_hashingENS1_20_Default_ranged_hashENS1_20_Prime_rehash_policyENS1_17_Hashtable_traitsILb0ELb1ELb1EEEE21_M_deallocate_bucketsEPPNS1_15_Hash_node_baseEm
	addq	$16, %rsp
	popq	%rbp
	retq
.Lfunc_end87:
	.size	_ZNSt10_HashtableIccSaIcENSt8__detail9_IdentityESt8equal_toIcESt4hashIcENS1_18_Mod_range_hashingENS1_20_Default_ranged_hashENS1_20_Prime_rehash_policyENS1_17_Hashtable_traitsILb0ELb1ELb1EEEE21_M_deallocate_bucketsEv, .Lfunc_end87-_ZNSt10_HashtableIccSaIcENSt8__detail9_IdentityESt8equal_toIcESt4hashIcENS1_18_Mod_range_hashingENS1_20_Default_ranged_hashENS1_20_Prime_rehash_policyENS1_17_Hashtable_traitsILb0ELb1ELb1EEEE21_M_deallocate_bucketsEv
	.cfi_endproc
                                        # -- End function
	.section	.text._ZNSt8__detail16_Hashtable_allocISaINS_10_Hash_nodeIcLb0EEEEE19_M_allocate_bucketsEm,"axG",@progbits,_ZNSt8__detail16_Hashtable_allocISaINS_10_Hash_nodeIcLb0EEEEE19_M_allocate_bucketsEm,comdat
	.weak	_ZNSt8__detail16_Hashtable_allocISaINS_10_Hash_nodeIcLb0EEEEE19_M_allocate_bucketsEm # -- Begin function _ZNSt8__detail16_Hashtable_allocISaINS_10_Hash_nodeIcLb0EEEEE19_M_allocate_bucketsEm
	.p2align	4, 0x90
	.type	_ZNSt8__detail16_Hashtable_allocISaINS_10_Hash_nodeIcLb0EEEEE19_M_allocate_bucketsEm,@function
_ZNSt8__detail16_Hashtable_allocISaINS_10_Hash_nodeIcLb0EEEEE19_M_allocate_bucketsEm: # @_ZNSt8__detail16_Hashtable_allocISaINS_10_Hash_nodeIcLb0EEEEE19_M_allocate_bucketsEm
.Lfunc_begin7:
	.cfi_startproc
	.cfi_personality 3, __gxx_personality_v0
	.cfi_lsda 3, .Lexception7
# %bb.0:
	pushq	%rbp
	.cfi_def_cfa_offset 16
	.cfi_offset %rbp, -16
	movq	%rsp, %rbp
	.cfi_def_cfa_register %rbp
	subq	$96, %rsp
	movq	%rdi, -8(%rbp)
	movq	%rsi, -16(%rbp)
	movq	-8(%rbp), %rdi
	callq	_ZNSt8__detail16_Hashtable_allocISaINS_10_Hash_nodeIcLb0EEEEE17_M_node_allocatorEv
	leaq	-24(%rbp), %rsi
	movq	%rsi, %rdi
	movq	%rsi, -64(%rbp)         # 8-byte Spill
	movq	%rax, %rsi
	callq	_ZNSaIPNSt8__detail15_Hash_node_baseEEC2INS_10_Hash_nodeIcLb0EEEEERKSaIT_E
	movq	-16(%rbp), %rsi
.Ltmp85:
	movq	-64(%rbp), %rdi         # 8-byte Reload
	callq	_ZNSt16allocator_traitsISaIPNSt8__detail15_Hash_node_baseEEE8allocateERS3_m
.Ltmp86:
	movq	%rax, -72(%rbp)         # 8-byte Spill
	jmp	.LBB88_1
.LBB88_1:
	movq	-72(%rbp), %rax         # 8-byte Reload
	movq	%rax, -32(%rbp)
	movq	-32(%rbp), %rdi
	callq	_ZSt11__addressofIPNSt8__detail15_Hash_node_baseEEPT_RS3_
	leaq	-24(%rbp), %rdi
	xorl	%esi, %esi
	movq	%rax, -56(%rbp)
	movq	-56(%rbp), %rax
	movq	-16(%rbp), %rcx
	shlq	$3, %rcx
	movq	%rdi, -80(%rbp)         # 8-byte Spill
	movq	%rax, %rdi
	movq	%rcx, %rdx
	callq	memset
	movq	-56(%rbp), %rax
	movq	-80(%rbp), %rdi         # 8-byte Reload
	movq	%rax, -88(%rbp)         # 8-byte Spill
	callq	_ZNSaIPNSt8__detail15_Hash_node_baseEED2Ev
	movq	-88(%rbp), %rax         # 8-byte Reload
	addq	$96, %rsp
	popq	%rbp
	retq
.LBB88_2:
.Ltmp87:
	leaq	-24(%rbp), %rdi
	movl	%edx, %ecx
	movq	%rax, -40(%rbp)
	movl	%ecx, -44(%rbp)
	callq	_ZNSaIPNSt8__detail15_Hash_node_baseEED2Ev
# %bb.3:
	movq	-40(%rbp), %rdi
	callq	_Unwind_Resume
.Lfunc_end88:
	.size	_ZNSt8__detail16_Hashtable_allocISaINS_10_Hash_nodeIcLb0EEEEE19_M_allocate_bucketsEm, .Lfunc_end88-_ZNSt8__detail16_Hashtable_allocISaINS_10_Hash_nodeIcLb0EEEEE19_M_allocate_bucketsEm
	.cfi_endproc
	.section	.gcc_except_table,"a",@progbits
	.p2align	2
GCC_except_table88:
.Lexception7:
	.byte	255                     # @LPStart Encoding = omit
	.byte	3                       # @TType Encoding = udata4
	.byte	41                      # @TType base offset
	.byte	3                       # Call site Encoding = udata4
	.byte	39                      # Call site table length
	.long	.Lfunc_begin7-.Lfunc_begin7 # >> Call Site 1 <<
	.long	.Ltmp85-.Lfunc_begin7   #   Call between .Lfunc_begin7 and .Ltmp85
	.long	0                       #     has no landing pad
	.byte	0                       #   On action: cleanup
	.long	.Ltmp85-.Lfunc_begin7   # >> Call Site 2 <<
	.long	.Ltmp86-.Ltmp85         #   Call between .Ltmp85 and .Ltmp86
	.long	.Ltmp87-.Lfunc_begin7   #     jumps to .Ltmp87
	.byte	0                       #   On action: cleanup
	.long	.Ltmp86-.Lfunc_begin7   # >> Call Site 3 <<
	.long	.Lfunc_end88-.Ltmp86    #   Call between .Ltmp86 and .Lfunc_end88
	.long	0                       #     has no landing pad
	.byte	0                       #   On action: cleanup
	.p2align	2
                                        # -- End function
	.section	.text._ZNSaIPNSt8__detail15_Hash_node_baseEEC2INS_10_Hash_nodeIcLb0EEEEERKSaIT_E,"axG",@progbits,_ZNSaIPNSt8__detail15_Hash_node_baseEEC2INS_10_Hash_nodeIcLb0EEEEERKSaIT_E,comdat
	.weak	_ZNSaIPNSt8__detail15_Hash_node_baseEEC2INS_10_Hash_nodeIcLb0EEEEERKSaIT_E # -- Begin function _ZNSaIPNSt8__detail15_Hash_node_baseEEC2INS_10_Hash_nodeIcLb0EEEEERKSaIT_E
	.p2align	4, 0x90
	.type	_ZNSaIPNSt8__detail15_Hash_node_baseEEC2INS_10_Hash_nodeIcLb0EEEEERKSaIT_E,@function
_ZNSaIPNSt8__detail15_Hash_node_baseEEC2INS_10_Hash_nodeIcLb0EEEEERKSaIT_E: # @_ZNSaIPNSt8__detail15_Hash_node_baseEEC2INS_10_Hash_nodeIcLb0EEEEERKSaIT_E
	.cfi_startproc
# %bb.0:
	pushq	%rbp
	.cfi_def_cfa_offset 16
	.cfi_offset %rbp, -16
	movq	%rsp, %rbp
	.cfi_def_cfa_register %rbp
	subq	$16, %rsp
	movq	%rdi, -8(%rbp)
	movq	%rsi, -16(%rbp)
	movq	-8(%rbp), %rsi
	movq	%rsi, %rdi
	callq	_ZN9__gnu_cxx13new_allocatorIPNSt8__detail15_Hash_node_baseEEC2Ev
	addq	$16, %rsp
	popq	%rbp
	retq
.Lfunc_end89:
	.size	_ZNSaIPNSt8__detail15_Hash_node_baseEEC2INS_10_Hash_nodeIcLb0EEEEERKSaIT_E, .Lfunc_end89-_ZNSaIPNSt8__detail15_Hash_node_baseEEC2INS_10_Hash_nodeIcLb0EEEEERKSaIT_E
	.cfi_endproc
                                        # -- End function
	.section	.text._ZNSt16allocator_traitsISaIPNSt8__detail15_Hash_node_baseEEE8allocateERS3_m,"axG",@progbits,_ZNSt16allocator_traitsISaIPNSt8__detail15_Hash_node_baseEEE8allocateERS3_m,comdat
	.weak	_ZNSt16allocator_traitsISaIPNSt8__detail15_Hash_node_baseEEE8allocateERS3_m # -- Begin function _ZNSt16allocator_traitsISaIPNSt8__detail15_Hash_node_baseEEE8allocateERS3_m
	.p2align	4, 0x90
	.type	_ZNSt16allocator_traitsISaIPNSt8__detail15_Hash_node_baseEEE8allocateERS3_m,@function
_ZNSt16allocator_traitsISaIPNSt8__detail15_Hash_node_baseEEE8allocateERS3_m: # @_ZNSt16allocator_traitsISaIPNSt8__detail15_Hash_node_baseEEE8allocateERS3_m
	.cfi_startproc
# %bb.0:
	pushq	%rbp
	.cfi_def_cfa_offset 16
	.cfi_offset %rbp, -16
	movq	%rsp, %rbp
	.cfi_def_cfa_register %rbp
	subq	$32, %rsp
	xorl	%eax, %eax
	movl	%eax, %edx
	movq	%rdi, -8(%rbp)
	movq	%rsi, -16(%rbp)
	movq	-8(%rbp), %rsi
	movq	-16(%rbp), %rdi
	movq	%rdi, -24(%rbp)         # 8-byte Spill
	movq	%rsi, %rdi
	movq	-24(%rbp), %rsi         # 8-byte Reload
	callq	_ZN9__gnu_cxx13new_allocatorIPNSt8__detail15_Hash_node_baseEE8allocateEmPKv
	addq	$32, %rsp
	popq	%rbp
	retq
.Lfunc_end90:
	.size	_ZNSt16allocator_traitsISaIPNSt8__detail15_Hash_node_baseEEE8allocateERS3_m, .Lfunc_end90-_ZNSt16allocator_traitsISaIPNSt8__detail15_Hash_node_baseEEE8allocateERS3_m
	.cfi_endproc
                                        # -- End function
	.section	.text._ZSt11__addressofIPNSt8__detail15_Hash_node_baseEEPT_RS3_,"axG",@progbits,_ZSt11__addressofIPNSt8__detail15_Hash_node_baseEEPT_RS3_,comdat
	.weak	_ZSt11__addressofIPNSt8__detail15_Hash_node_baseEEPT_RS3_ # -- Begin function _ZSt11__addressofIPNSt8__detail15_Hash_node_baseEEPT_RS3_
	.p2align	4, 0x90
	.type	_ZSt11__addressofIPNSt8__detail15_Hash_node_baseEEPT_RS3_,@function
_ZSt11__addressofIPNSt8__detail15_Hash_node_baseEEPT_RS3_: # @_ZSt11__addressofIPNSt8__detail15_Hash_node_baseEEPT_RS3_
	.cfi_startproc
# %bb.0:
	pushq	%rbp
	.cfi_def_cfa_offset 16
	.cfi_offset %rbp, -16
	movq	%rsp, %rbp
	.cfi_def_cfa_register %rbp
	movq	%rdi, -8(%rbp)
	movq	-8(%rbp), %rax
	popq	%rbp
	retq
.Lfunc_end91:
	.size	_ZSt11__addressofIPNSt8__detail15_Hash_node_baseEEPT_RS3_, .Lfunc_end91-_ZSt11__addressofIPNSt8__detail15_Hash_node_baseEEPT_RS3_
	.cfi_endproc
                                        # -- End function
	.section	.text._ZNSaIPNSt8__detail15_Hash_node_baseEED2Ev,"axG",@progbits,_ZNSaIPNSt8__detail15_Hash_node_baseEED2Ev,comdat
	.weak	_ZNSaIPNSt8__detail15_Hash_node_baseEED2Ev # -- Begin function _ZNSaIPNSt8__detail15_Hash_node_baseEED2Ev
	.p2align	4, 0x90
	.type	_ZNSaIPNSt8__detail15_Hash_node_baseEED2Ev,@function
_ZNSaIPNSt8__detail15_Hash_node_baseEED2Ev: # @_ZNSaIPNSt8__detail15_Hash_node_baseEED2Ev
	.cfi_startproc
# %bb.0:
	pushq	%rbp
	.cfi_def_cfa_offset 16
	.cfi_offset %rbp, -16
	movq	%rsp, %rbp
	.cfi_def_cfa_register %rbp
	subq	$16, %rsp
	movq	%rdi, -8(%rbp)
	movq	-8(%rbp), %rdi
	callq	_ZN9__gnu_cxx13new_allocatorIPNSt8__detail15_Hash_node_baseEED2Ev
	addq	$16, %rsp
	popq	%rbp
	retq
.Lfunc_end92:
	.size	_ZNSaIPNSt8__detail15_Hash_node_baseEED2Ev, .Lfunc_end92-_ZNSaIPNSt8__detail15_Hash_node_baseEED2Ev
	.cfi_endproc
                                        # -- End function
	.section	.text._ZN9__gnu_cxx13new_allocatorIPNSt8__detail15_Hash_node_baseEEC2Ev,"axG",@progbits,_ZN9__gnu_cxx13new_allocatorIPNSt8__detail15_Hash_node_baseEEC2Ev,comdat
	.weak	_ZN9__gnu_cxx13new_allocatorIPNSt8__detail15_Hash_node_baseEEC2Ev # -- Begin function _ZN9__gnu_cxx13new_allocatorIPNSt8__detail15_Hash_node_baseEEC2Ev
	.p2align	4, 0x90
	.type	_ZN9__gnu_cxx13new_allocatorIPNSt8__detail15_Hash_node_baseEEC2Ev,@function
_ZN9__gnu_cxx13new_allocatorIPNSt8__detail15_Hash_node_baseEEC2Ev: # @_ZN9__gnu_cxx13new_allocatorIPNSt8__detail15_Hash_node_baseEEC2Ev
	.cfi_startproc
# %bb.0:
	pushq	%rbp
	.cfi_def_cfa_offset 16
	.cfi_offset %rbp, -16
	movq	%rsp, %rbp
	.cfi_def_cfa_register %rbp
	movq	%rdi, -8(%rbp)
	popq	%rbp
	retq
.Lfunc_end93:
	.size	_ZN9__gnu_cxx13new_allocatorIPNSt8__detail15_Hash_node_baseEEC2Ev, .Lfunc_end93-_ZN9__gnu_cxx13new_allocatorIPNSt8__detail15_Hash_node_baseEEC2Ev
	.cfi_endproc
                                        # -- End function
	.section	.text._ZN9__gnu_cxx13new_allocatorIPNSt8__detail15_Hash_node_baseEE8allocateEmPKv,"axG",@progbits,_ZN9__gnu_cxx13new_allocatorIPNSt8__detail15_Hash_node_baseEE8allocateEmPKv,comdat
	.weak	_ZN9__gnu_cxx13new_allocatorIPNSt8__detail15_Hash_node_baseEE8allocateEmPKv # -- Begin function _ZN9__gnu_cxx13new_allocatorIPNSt8__detail15_Hash_node_baseEE8allocateEmPKv
	.p2align	4, 0x90
	.type	_ZN9__gnu_cxx13new_allocatorIPNSt8__detail15_Hash_node_baseEE8allocateEmPKv,@function
_ZN9__gnu_cxx13new_allocatorIPNSt8__detail15_Hash_node_baseEE8allocateEmPKv: # @_ZN9__gnu_cxx13new_allocatorIPNSt8__detail15_Hash_node_baseEE8allocateEmPKv
	.cfi_startproc
# %bb.0:
	pushq	%rbp
	.cfi_def_cfa_offset 16
	.cfi_offset %rbp, -16
	movq	%rsp, %rbp
	.cfi_def_cfa_register %rbp
	subq	$32, %rsp
	movq	%rdi, -8(%rbp)
	movq	%rsi, -16(%rbp)
	movq	%rdx, -24(%rbp)
	movq	-8(%rbp), %rdi
	movq	-16(%rbp), %rdx
	movq	%rdx, -32(%rbp)         # 8-byte Spill
	callq	_ZNK9__gnu_cxx13new_allocatorIPNSt8__detail15_Hash_node_baseEE8max_sizeEv
	movq	-32(%rbp), %rdx         # 8-byte Reload
	cmpq	%rax, %rdx
	jbe	.LBB94_2
# %bb.1:
	callq	_ZSt17__throw_bad_allocv
.LBB94_2:
	movq	-16(%rbp), %rax
	shlq	$3, %rax
	movq	%rax, %rdi
	callq	_Znwm
	addq	$32, %rsp
	popq	%rbp
	retq
.Lfunc_end94:
	.size	_ZN9__gnu_cxx13new_allocatorIPNSt8__detail15_Hash_node_baseEE8allocateEmPKv, .Lfunc_end94-_ZN9__gnu_cxx13new_allocatorIPNSt8__detail15_Hash_node_baseEE8allocateEmPKv
	.cfi_endproc
                                        # -- End function
	.section	.text._ZNK9__gnu_cxx13new_allocatorIPNSt8__detail15_Hash_node_baseEE8max_sizeEv,"axG",@progbits,_ZNK9__gnu_cxx13new_allocatorIPNSt8__detail15_Hash_node_baseEE8max_sizeEv,comdat
	.weak	_ZNK9__gnu_cxx13new_allocatorIPNSt8__detail15_Hash_node_baseEE8max_sizeEv # -- Begin function _ZNK9__gnu_cxx13new_allocatorIPNSt8__detail15_Hash_node_baseEE8max_sizeEv
	.p2align	4, 0x90
	.type	_ZNK9__gnu_cxx13new_allocatorIPNSt8__detail15_Hash_node_baseEE8max_sizeEv,@function
_ZNK9__gnu_cxx13new_allocatorIPNSt8__detail15_Hash_node_baseEE8max_sizeEv: # @_ZNK9__gnu_cxx13new_allocatorIPNSt8__detail15_Hash_node_baseEE8max_sizeEv
	.cfi_startproc
# %bb.0:
	pushq	%rbp
	.cfi_def_cfa_offset 16
	.cfi_offset %rbp, -16
	movq	%rsp, %rbp
	.cfi_def_cfa_register %rbp
	movabsq	$2305843009213693951, %rax # imm = 0x1FFFFFFFFFFFFFFF
	movq	%rdi, -8(%rbp)
	popq	%rbp
	retq
.Lfunc_end95:
	.size	_ZNK9__gnu_cxx13new_allocatorIPNSt8__detail15_Hash_node_baseEE8max_sizeEv, .Lfunc_end95-_ZNK9__gnu_cxx13new_allocatorIPNSt8__detail15_Hash_node_baseEE8max_sizeEv
	.cfi_endproc
                                        # -- End function
	.section	.text._ZN9__gnu_cxx13new_allocatorIPNSt8__detail15_Hash_node_baseEED2Ev,"axG",@progbits,_ZN9__gnu_cxx13new_allocatorIPNSt8__detail15_Hash_node_baseEED2Ev,comdat
	.weak	_ZN9__gnu_cxx13new_allocatorIPNSt8__detail15_Hash_node_baseEED2Ev # -- Begin function _ZN9__gnu_cxx13new_allocatorIPNSt8__detail15_Hash_node_baseEED2Ev
	.p2align	4, 0x90
	.type	_ZN9__gnu_cxx13new_allocatorIPNSt8__detail15_Hash_node_baseEED2Ev,@function
_ZN9__gnu_cxx13new_allocatorIPNSt8__detail15_Hash_node_baseEED2Ev: # @_ZN9__gnu_cxx13new_allocatorIPNSt8__detail15_Hash_node_baseEED2Ev
	.cfi_startproc
# %bb.0:
	pushq	%rbp
	.cfi_def_cfa_offset 16
	.cfi_offset %rbp, -16
	movq	%rsp, %rbp
	.cfi_def_cfa_register %rbp
	movq	%rdi, -8(%rbp)
	popq	%rbp
	retq
.Lfunc_end96:
	.size	_ZN9__gnu_cxx13new_allocatorIPNSt8__detail15_Hash_node_baseEED2Ev, .Lfunc_end96-_ZN9__gnu_cxx13new_allocatorIPNSt8__detail15_Hash_node_baseEED2Ev
	.cfi_endproc
                                        # -- End function
	.section	.text._ZNSt10_HashtableIccSaIcENSt8__detail9_IdentityESt8equal_toIcESt4hashIcENS1_18_Mod_range_hashingENS1_20_Default_ranged_hashENS1_20_Prime_rehash_policyENS1_17_Hashtable_traitsILb0ELb1ELb1EEEE21_M_deallocate_bucketsEPPNS1_15_Hash_node_baseEm,"axG",@progbits,_ZNSt10_HashtableIccSaIcENSt8__detail9_IdentityESt8equal_toIcESt4hashIcENS1_18_Mod_range_hashingENS1_20_Default_ranged_hashENS1_20_Prime_rehash_policyENS1_17_Hashtable_traitsILb0ELb1ELb1EEEE21_M_deallocate_bucketsEPPNS1_15_Hash_node_baseEm,comdat
	.weak	_ZNSt10_HashtableIccSaIcENSt8__detail9_IdentityESt8equal_toIcESt4hashIcENS1_18_Mod_range_hashingENS1_20_Default_ranged_hashENS1_20_Prime_rehash_policyENS1_17_Hashtable_traitsILb0ELb1ELb1EEEE21_M_deallocate_bucketsEPPNS1_15_Hash_node_baseEm # -- Begin function _ZNSt10_HashtableIccSaIcENSt8__detail9_IdentityESt8equal_toIcESt4hashIcENS1_18_Mod_range_hashingENS1_20_Default_ranged_hashENS1_20_Prime_rehash_policyENS1_17_Hashtable_traitsILb0ELb1ELb1EEEE21_M_deallocate_bucketsEPPNS1_15_Hash_node_baseEm
	.p2align	4, 0x90
	.type	_ZNSt10_HashtableIccSaIcENSt8__detail9_IdentityESt8equal_toIcESt4hashIcENS1_18_Mod_range_hashingENS1_20_Default_ranged_hashENS1_20_Prime_rehash_policyENS1_17_Hashtable_traitsILb0ELb1ELb1EEEE21_M_deallocate_bucketsEPPNS1_15_Hash_node_baseEm,@function
_ZNSt10_HashtableIccSaIcENSt8__detail9_IdentityESt8equal_toIcESt4hashIcENS1_18_Mod_range_hashingENS1_20_Default_ranged_hashENS1_20_Prime_rehash_policyENS1_17_Hashtable_traitsILb0ELb1ELb1EEEE21_M_deallocate_bucketsEPPNS1_15_Hash_node_baseEm: # @_ZNSt10_HashtableIccSaIcENSt8__detail9_IdentityESt8equal_toIcESt4hashIcENS1_18_Mod_range_hashingENS1_20_Default_ranged_hashENS1_20_Prime_rehash_policyENS1_17_Hashtable_traitsILb0ELb1ELb1EEEE21_M_deallocate_bucketsEPPNS1_15_Hash_node_baseEm
	.cfi_startproc
# %bb.0:
	pushq	%rbp
	.cfi_def_cfa_offset 16
	.cfi_offset %rbp, -16
	movq	%rsp, %rbp
	.cfi_def_cfa_register %rbp
	subq	$32, %rsp
	movq	%rdi, -8(%rbp)
	movq	%rsi, -16(%rbp)
	movq	%rdx, -24(%rbp)
	movq	-8(%rbp), %rdx
	movq	-16(%rbp), %rsi
	movq	%rdx, %rdi
	movq	%rdx, -32(%rbp)         # 8-byte Spill
	callq	_ZNKSt10_HashtableIccSaIcENSt8__detail9_IdentityESt8equal_toIcESt4hashIcENS1_18_Mod_range_hashingENS1_20_Default_ranged_hashENS1_20_Prime_rehash_policyENS1_17_Hashtable_traitsILb0ELb1ELb1EEEE21_M_uses_single_bucketEPPNS1_15_Hash_node_baseE
	testb	$1, %al
	jne	.LBB97_1
	jmp	.LBB97_2
.LBB97_1:
	jmp	.LBB97_3
.LBB97_2:
	movq	-32(%rbp), %rax         # 8-byte Reload
	movq	-16(%rbp), %rsi
	movq	-24(%rbp), %rdx
	movq	%rax, %rdi
	callq	_ZNSt8__detail16_Hashtable_allocISaINS_10_Hash_nodeIcLb0EEEEE21_M_deallocate_bucketsEPPNS_15_Hash_node_baseEm
.LBB97_3:
	addq	$32, %rsp
	popq	%rbp
	retq
.Lfunc_end97:
	.size	_ZNSt10_HashtableIccSaIcENSt8__detail9_IdentityESt8equal_toIcESt4hashIcENS1_18_Mod_range_hashingENS1_20_Default_ranged_hashENS1_20_Prime_rehash_policyENS1_17_Hashtable_traitsILb0ELb1ELb1EEEE21_M_deallocate_bucketsEPPNS1_15_Hash_node_baseEm, .Lfunc_end97-_ZNSt10_HashtableIccSaIcENSt8__detail9_IdentityESt8equal_toIcESt4hashIcENS1_18_Mod_range_hashingENS1_20_Default_ranged_hashENS1_20_Prime_rehash_policyENS1_17_Hashtable_traitsILb0ELb1ELb1EEEE21_M_deallocate_bucketsEPPNS1_15_Hash_node_baseEm
	.cfi_endproc
                                        # -- End function
	.section	.text._ZNKSt10_HashtableIccSaIcENSt8__detail9_IdentityESt8equal_toIcESt4hashIcENS1_18_Mod_range_hashingENS1_20_Default_ranged_hashENS1_20_Prime_rehash_policyENS1_17_Hashtable_traitsILb0ELb1ELb1EEEE21_M_uses_single_bucketEPPNS1_15_Hash_node_baseE,"axG",@progbits,_ZNKSt10_HashtableIccSaIcENSt8__detail9_IdentityESt8equal_toIcESt4hashIcENS1_18_Mod_range_hashingENS1_20_Default_ranged_hashENS1_20_Prime_rehash_policyENS1_17_Hashtable_traitsILb0ELb1ELb1EEEE21_M_uses_single_bucketEPPNS1_15_Hash_node_baseE,comdat
	.weak	_ZNKSt10_HashtableIccSaIcENSt8__detail9_IdentityESt8equal_toIcESt4hashIcENS1_18_Mod_range_hashingENS1_20_Default_ranged_hashENS1_20_Prime_rehash_policyENS1_17_Hashtable_traitsILb0ELb1ELb1EEEE21_M_uses_single_bucketEPPNS1_15_Hash_node_baseE # -- Begin function _ZNKSt10_HashtableIccSaIcENSt8__detail9_IdentityESt8equal_toIcESt4hashIcENS1_18_Mod_range_hashingENS1_20_Default_ranged_hashENS1_20_Prime_rehash_policyENS1_17_Hashtable_traitsILb0ELb1ELb1EEEE21_M_uses_single_bucketEPPNS1_15_Hash_node_baseE
	.p2align	4, 0x90
	.type	_ZNKSt10_HashtableIccSaIcENSt8__detail9_IdentityESt8equal_toIcESt4hashIcENS1_18_Mod_range_hashingENS1_20_Default_ranged_hashENS1_20_Prime_rehash_policyENS1_17_Hashtable_traitsILb0ELb1ELb1EEEE21_M_uses_single_bucketEPPNS1_15_Hash_node_baseE,@function
_ZNKSt10_HashtableIccSaIcENSt8__detail9_IdentityESt8equal_toIcESt4hashIcENS1_18_Mod_range_hashingENS1_20_Default_ranged_hashENS1_20_Prime_rehash_policyENS1_17_Hashtable_traitsILb0ELb1ELb1EEEE21_M_uses_single_bucketEPPNS1_15_Hash_node_baseE: # @_ZNKSt10_HashtableIccSaIcENSt8__detail9_IdentityESt8equal_toIcESt4hashIcENS1_18_Mod_range_hashingENS1_20_Default_ranged_hashENS1_20_Prime_rehash_policyENS1_17_Hashtable_traitsILb0ELb1ELb1EEEE21_M_uses_single_bucketEPPNS1_15_Hash_node_baseE
	.cfi_startproc
# %bb.0:
	pushq	%rbp
	.cfi_def_cfa_offset 16
	.cfi_offset %rbp, -16
	movq	%rsp, %rbp
	.cfi_def_cfa_register %rbp
	movq	%rdi, -8(%rbp)
	movq	%rsi, -16(%rbp)
	movq	-8(%rbp), %rsi
	movq	-16(%rbp), %rdi
	addq	$48, %rsi
	cmpq	%rsi, %rdi
	sete	%al
	andb	$1, %al
	movzbl	%al, %eax
	popq	%rbp
	retq
.Lfunc_end98:
	.size	_ZNKSt10_HashtableIccSaIcENSt8__detail9_IdentityESt8equal_toIcESt4hashIcENS1_18_Mod_range_hashingENS1_20_Default_ranged_hashENS1_20_Prime_rehash_policyENS1_17_Hashtable_traitsILb0ELb1ELb1EEEE21_M_uses_single_bucketEPPNS1_15_Hash_node_baseE, .Lfunc_end98-_ZNKSt10_HashtableIccSaIcENSt8__detail9_IdentityESt8equal_toIcESt4hashIcENS1_18_Mod_range_hashingENS1_20_Default_ranged_hashENS1_20_Prime_rehash_policyENS1_17_Hashtable_traitsILb0ELb1ELb1EEEE21_M_uses_single_bucketEPPNS1_15_Hash_node_baseE
	.cfi_endproc
                                        # -- End function
	.section	.text._ZNSt8__detail16_Hashtable_allocISaINS_10_Hash_nodeIcLb0EEEEE21_M_deallocate_bucketsEPPNS_15_Hash_node_baseEm,"axG",@progbits,_ZNSt8__detail16_Hashtable_allocISaINS_10_Hash_nodeIcLb0EEEEE21_M_deallocate_bucketsEPPNS_15_Hash_node_baseEm,comdat
	.weak	_ZNSt8__detail16_Hashtable_allocISaINS_10_Hash_nodeIcLb0EEEEE21_M_deallocate_bucketsEPPNS_15_Hash_node_baseEm # -- Begin function _ZNSt8__detail16_Hashtable_allocISaINS_10_Hash_nodeIcLb0EEEEE21_M_deallocate_bucketsEPPNS_15_Hash_node_baseEm
	.p2align	4, 0x90
	.type	_ZNSt8__detail16_Hashtable_allocISaINS_10_Hash_nodeIcLb0EEEEE21_M_deallocate_bucketsEPPNS_15_Hash_node_baseEm,@function
_ZNSt8__detail16_Hashtable_allocISaINS_10_Hash_nodeIcLb0EEEEE21_M_deallocate_bucketsEPPNS_15_Hash_node_baseEm: # @_ZNSt8__detail16_Hashtable_allocISaINS_10_Hash_nodeIcLb0EEEEE21_M_deallocate_bucketsEPPNS_15_Hash_node_baseEm
.Lfunc_begin8:
	.cfi_startproc
	.cfi_personality 3, __gxx_personality_v0
	.cfi_lsda 3, .Lexception8
# %bb.0:
	pushq	%rbp
	.cfi_def_cfa_offset 16
	.cfi_offset %rbp, -16
	movq	%rsp, %rbp
	.cfi_def_cfa_register %rbp
	subq	$80, %rsp
	movq	%rdi, -8(%rbp)
	movq	%rsi, -16(%rbp)
	movq	%rdx, -24(%rbp)
	movq	-8(%rbp), %rdi
	movq	-16(%rbp), %rdx
	movq	%rdi, -64(%rbp)         # 8-byte Spill
	movq	%rdx, %rdi
	callq	_ZNSt14pointer_traitsIPPNSt8__detail15_Hash_node_baseEE10pointer_toERS2_
	movq	%rax, -32(%rbp)
	movq	-64(%rbp), %rdi         # 8-byte Reload
	callq	_ZNSt8__detail16_Hashtable_allocISaINS_10_Hash_nodeIcLb0EEEEE17_M_node_allocatorEv
	leaq	-40(%rbp), %rdx
	movq	%rdx, %rdi
	movq	%rax, %rsi
	movq	%rdx, -72(%rbp)         # 8-byte Spill
	callq	_ZNSaIPNSt8__detail15_Hash_node_baseEEC2INS_10_Hash_nodeIcLb0EEEEERKSaIT_E
	movq	-32(%rbp), %rsi
	movq	-24(%rbp), %rdx
.Ltmp88:
	movq	-72(%rbp), %rdi         # 8-byte Reload
	callq	_ZNSt16allocator_traitsISaIPNSt8__detail15_Hash_node_baseEEE10deallocateERS3_PS2_m
.Ltmp89:
	jmp	.LBB99_1
.LBB99_1:
	leaq	-40(%rbp), %rdi
	callq	_ZNSaIPNSt8__detail15_Hash_node_baseEED2Ev
	addq	$80, %rsp
	popq	%rbp
	retq
.LBB99_2:
.Ltmp90:
	leaq	-40(%rbp), %rdi
	movl	%edx, %ecx
	movq	%rax, -48(%rbp)
	movl	%ecx, -52(%rbp)
	callq	_ZNSaIPNSt8__detail15_Hash_node_baseEED2Ev
# %bb.3:
	movq	-48(%rbp), %rdi
	callq	_Unwind_Resume
.Lfunc_end99:
	.size	_ZNSt8__detail16_Hashtable_allocISaINS_10_Hash_nodeIcLb0EEEEE21_M_deallocate_bucketsEPPNS_15_Hash_node_baseEm, .Lfunc_end99-_ZNSt8__detail16_Hashtable_allocISaINS_10_Hash_nodeIcLb0EEEEE21_M_deallocate_bucketsEPPNS_15_Hash_node_baseEm
	.cfi_endproc
	.section	.gcc_except_table,"a",@progbits
	.p2align	2
GCC_except_table99:
.Lexception8:
	.byte	255                     # @LPStart Encoding = omit
	.byte	3                       # @TType Encoding = udata4
	.byte	41                      # @TType base offset
	.byte	3                       # Call site Encoding = udata4
	.byte	39                      # Call site table length
	.long	.Lfunc_begin8-.Lfunc_begin8 # >> Call Site 1 <<
	.long	.Ltmp88-.Lfunc_begin8   #   Call between .Lfunc_begin8 and .Ltmp88
	.long	0                       #     has no landing pad
	.byte	0                       #   On action: cleanup
	.long	.Ltmp88-.Lfunc_begin8   # >> Call Site 2 <<
	.long	.Ltmp89-.Ltmp88         #   Call between .Ltmp88 and .Ltmp89
	.long	.Ltmp90-.Lfunc_begin8   #     jumps to .Ltmp90
	.byte	0                       #   On action: cleanup
	.long	.Ltmp89-.Lfunc_begin8   # >> Call Site 3 <<
	.long	.Lfunc_end99-.Ltmp89    #   Call between .Ltmp89 and .Lfunc_end99
	.long	0                       #     has no landing pad
	.byte	0                       #   On action: cleanup
	.p2align	2
                                        # -- End function
	.section	.text._ZNSt14pointer_traitsIPPNSt8__detail15_Hash_node_baseEE10pointer_toERS2_,"axG",@progbits,_ZNSt14pointer_traitsIPPNSt8__detail15_Hash_node_baseEE10pointer_toERS2_,comdat
	.weak	_ZNSt14pointer_traitsIPPNSt8__detail15_Hash_node_baseEE10pointer_toERS2_ # -- Begin function _ZNSt14pointer_traitsIPPNSt8__detail15_Hash_node_baseEE10pointer_toERS2_
	.p2align	4, 0x90
	.type	_ZNSt14pointer_traitsIPPNSt8__detail15_Hash_node_baseEE10pointer_toERS2_,@function
_ZNSt14pointer_traitsIPPNSt8__detail15_Hash_node_baseEE10pointer_toERS2_: # @_ZNSt14pointer_traitsIPPNSt8__detail15_Hash_node_baseEE10pointer_toERS2_
	.cfi_startproc
# %bb.0:
	pushq	%rbp
	.cfi_def_cfa_offset 16
	.cfi_offset %rbp, -16
	movq	%rsp, %rbp
	.cfi_def_cfa_register %rbp
	subq	$16, %rsp
	movq	%rdi, -8(%rbp)
	movq	-8(%rbp), %rdi
	callq	_ZSt9addressofIPNSt8__detail15_Hash_node_baseEEPT_RS3_
	addq	$16, %rsp
	popq	%rbp
	retq
.Lfunc_end100:
	.size	_ZNSt14pointer_traitsIPPNSt8__detail15_Hash_node_baseEE10pointer_toERS2_, .Lfunc_end100-_ZNSt14pointer_traitsIPPNSt8__detail15_Hash_node_baseEE10pointer_toERS2_
	.cfi_endproc
                                        # -- End function
	.section	.text._ZNSt16allocator_traitsISaIPNSt8__detail15_Hash_node_baseEEE10deallocateERS3_PS2_m,"axG",@progbits,_ZNSt16allocator_traitsISaIPNSt8__detail15_Hash_node_baseEEE10deallocateERS3_PS2_m,comdat
	.weak	_ZNSt16allocator_traitsISaIPNSt8__detail15_Hash_node_baseEEE10deallocateERS3_PS2_m # -- Begin function _ZNSt16allocator_traitsISaIPNSt8__detail15_Hash_node_baseEEE10deallocateERS3_PS2_m
	.p2align	4, 0x90
	.type	_ZNSt16allocator_traitsISaIPNSt8__detail15_Hash_node_baseEEE10deallocateERS3_PS2_m,@function
_ZNSt16allocator_traitsISaIPNSt8__detail15_Hash_node_baseEEE10deallocateERS3_PS2_m: # @_ZNSt16allocator_traitsISaIPNSt8__detail15_Hash_node_baseEEE10deallocateERS3_PS2_m
	.cfi_startproc
# %bb.0:
	pushq	%rbp
	.cfi_def_cfa_offset 16
	.cfi_offset %rbp, -16
	movq	%rsp, %rbp
	.cfi_def_cfa_register %rbp
	subq	$32, %rsp
	movq	%rdi, -8(%rbp)
	movq	%rsi, -16(%rbp)
	movq	%rdx, -24(%rbp)
	movq	-8(%rbp), %rdx
	movq	-16(%rbp), %rsi
	movq	-24(%rbp), %rdi
	movq	%rdi, -32(%rbp)         # 8-byte Spill
	movq	%rdx, %rdi
	movq	-32(%rbp), %rdx         # 8-byte Reload
	callq	_ZN9__gnu_cxx13new_allocatorIPNSt8__detail15_Hash_node_baseEE10deallocateEPS3_m
	addq	$32, %rsp
	popq	%rbp
	retq
.Lfunc_end101:
	.size	_ZNSt16allocator_traitsISaIPNSt8__detail15_Hash_node_baseEEE10deallocateERS3_PS2_m, .Lfunc_end101-_ZNSt16allocator_traitsISaIPNSt8__detail15_Hash_node_baseEEE10deallocateERS3_PS2_m
	.cfi_endproc
                                        # -- End function
	.section	.text._ZSt9addressofIPNSt8__detail15_Hash_node_baseEEPT_RS3_,"axG",@progbits,_ZSt9addressofIPNSt8__detail15_Hash_node_baseEEPT_RS3_,comdat
	.weak	_ZSt9addressofIPNSt8__detail15_Hash_node_baseEEPT_RS3_ # -- Begin function _ZSt9addressofIPNSt8__detail15_Hash_node_baseEEPT_RS3_
	.p2align	4, 0x90
	.type	_ZSt9addressofIPNSt8__detail15_Hash_node_baseEEPT_RS3_,@function
_ZSt9addressofIPNSt8__detail15_Hash_node_baseEEPT_RS3_: # @_ZSt9addressofIPNSt8__detail15_Hash_node_baseEEPT_RS3_
	.cfi_startproc
# %bb.0:
	pushq	%rbp
	.cfi_def_cfa_offset 16
	.cfi_offset %rbp, -16
	movq	%rsp, %rbp
	.cfi_def_cfa_register %rbp
	subq	$16, %rsp
	movq	%rdi, -8(%rbp)
	movq	-8(%rbp), %rdi
	callq	_ZSt11__addressofIPNSt8__detail15_Hash_node_baseEEPT_RS3_
	addq	$16, %rsp
	popq	%rbp
	retq
.Lfunc_end102:
	.size	_ZSt9addressofIPNSt8__detail15_Hash_node_baseEEPT_RS3_, .Lfunc_end102-_ZSt9addressofIPNSt8__detail15_Hash_node_baseEEPT_RS3_
	.cfi_endproc
                                        # -- End function
	.section	.text._ZN9__gnu_cxx13new_allocatorIPNSt8__detail15_Hash_node_baseEE10deallocateEPS3_m,"axG",@progbits,_ZN9__gnu_cxx13new_allocatorIPNSt8__detail15_Hash_node_baseEE10deallocateEPS3_m,comdat
	.weak	_ZN9__gnu_cxx13new_allocatorIPNSt8__detail15_Hash_node_baseEE10deallocateEPS3_m # -- Begin function _ZN9__gnu_cxx13new_allocatorIPNSt8__detail15_Hash_node_baseEE10deallocateEPS3_m
	.p2align	4, 0x90
	.type	_ZN9__gnu_cxx13new_allocatorIPNSt8__detail15_Hash_node_baseEE10deallocateEPS3_m,@function
_ZN9__gnu_cxx13new_allocatorIPNSt8__detail15_Hash_node_baseEE10deallocateEPS3_m: # @_ZN9__gnu_cxx13new_allocatorIPNSt8__detail15_Hash_node_baseEE10deallocateEPS3_m
	.cfi_startproc
# %bb.0:
	pushq	%rbp
	.cfi_def_cfa_offset 16
	.cfi_offset %rbp, -16
	movq	%rsp, %rbp
	.cfi_def_cfa_register %rbp
	subq	$32, %rsp
	movq	%rdi, -8(%rbp)
	movq	%rsi, -16(%rbp)
	movq	%rdx, -24(%rbp)
	movq	-16(%rbp), %rdx
	movq	%rdx, %rdi
	callq	_ZdlPv
	addq	$32, %rsp
	popq	%rbp
	retq
.Lfunc_end103:
	.size	_ZN9__gnu_cxx13new_allocatorIPNSt8__detail15_Hash_node_baseEE10deallocateEPS3_m, .Lfunc_end103-_ZN9__gnu_cxx13new_allocatorIPNSt8__detail15_Hash_node_baseEE10deallocateEPS3_m
	.cfi_endproc
                                        # -- End function
	.section	.text._ZNSt14pointer_traitsIPNSt8__detail10_Hash_nodeIcLb0EEEE10pointer_toERS2_,"axG",@progbits,_ZNSt14pointer_traitsIPNSt8__detail10_Hash_nodeIcLb0EEEE10pointer_toERS2_,comdat
	.weak	_ZNSt14pointer_traitsIPNSt8__detail10_Hash_nodeIcLb0EEEE10pointer_toERS2_ # -- Begin function _ZNSt14pointer_traitsIPNSt8__detail10_Hash_nodeIcLb0EEEE10pointer_toERS2_
	.p2align	4, 0x90
	.type	_ZNSt14pointer_traitsIPNSt8__detail10_Hash_nodeIcLb0EEEE10pointer_toERS2_,@function
_ZNSt14pointer_traitsIPNSt8__detail10_Hash_nodeIcLb0EEEE10pointer_toERS2_: # @_ZNSt14pointer_traitsIPNSt8__detail10_Hash_nodeIcLb0EEEE10pointer_toERS2_
	.cfi_startproc
# %bb.0:
	pushq	%rbp
	.cfi_def_cfa_offset 16
	.cfi_offset %rbp, -16
	movq	%rsp, %rbp
	.cfi_def_cfa_register %rbp
	subq	$16, %rsp
	movq	%rdi, -8(%rbp)
	movq	-8(%rbp), %rdi
	callq	_ZSt9addressofINSt8__detail10_Hash_nodeIcLb0EEEEPT_RS3_
	addq	$16, %rsp
	popq	%rbp
	retq
.Lfunc_end104:
	.size	_ZNSt14pointer_traitsIPNSt8__detail10_Hash_nodeIcLb0EEEE10pointer_toERS2_, .Lfunc_end104-_ZNSt14pointer_traitsIPNSt8__detail10_Hash_nodeIcLb0EEEE10pointer_toERS2_
	.cfi_endproc
                                        # -- End function
	.section	.text._ZNSt16allocator_traitsISaIcEE7destroyIcEEvRS0_PT_,"axG",@progbits,_ZNSt16allocator_traitsISaIcEE7destroyIcEEvRS0_PT_,comdat
	.weak	_ZNSt16allocator_traitsISaIcEE7destroyIcEEvRS0_PT_ # -- Begin function _ZNSt16allocator_traitsISaIcEE7destroyIcEEvRS0_PT_
	.p2align	4, 0x90
	.type	_ZNSt16allocator_traitsISaIcEE7destroyIcEEvRS0_PT_,@function
_ZNSt16allocator_traitsISaIcEE7destroyIcEEvRS0_PT_: # @_ZNSt16allocator_traitsISaIcEE7destroyIcEEvRS0_PT_
	.cfi_startproc
# %bb.0:
	pushq	%rbp
	.cfi_def_cfa_offset 16
	.cfi_offset %rbp, -16
	movq	%rsp, %rbp
	.cfi_def_cfa_register %rbp
	subq	$32, %rsp
	movq	%rdi, -8(%rbp)
	movq	%rsi, -16(%rbp)
	movq	-8(%rbp), %rsi
	movq	-16(%rbp), %rdi
	movq	%rdi, -24(%rbp)         # 8-byte Spill
	movq	%rsi, %rdi
	movq	-24(%rbp), %rsi         # 8-byte Reload
	callq	_ZN9__gnu_cxx13new_allocatorIcE7destroyIcEEvPT_
	addq	$32, %rsp
	popq	%rbp
	retq
.Lfunc_end105:
	.size	_ZNSt16allocator_traitsISaIcEE7destroyIcEEvRS0_PT_, .Lfunc_end105-_ZNSt16allocator_traitsISaIcEE7destroyIcEEvRS0_PT_
	.cfi_endproc
                                        # -- End function
	.section	.text._ZSt9addressofINSt8__detail10_Hash_nodeIcLb0EEEEPT_RS3_,"axG",@progbits,_ZSt9addressofINSt8__detail10_Hash_nodeIcLb0EEEEPT_RS3_,comdat
	.weak	_ZSt9addressofINSt8__detail10_Hash_nodeIcLb0EEEEPT_RS3_ # -- Begin function _ZSt9addressofINSt8__detail10_Hash_nodeIcLb0EEEEPT_RS3_
	.p2align	4, 0x90
	.type	_ZSt9addressofINSt8__detail10_Hash_nodeIcLb0EEEEPT_RS3_,@function
_ZSt9addressofINSt8__detail10_Hash_nodeIcLb0EEEEPT_RS3_: # @_ZSt9addressofINSt8__detail10_Hash_nodeIcLb0EEEEPT_RS3_
	.cfi_startproc
# %bb.0:
	pushq	%rbp
	.cfi_def_cfa_offset 16
	.cfi_offset %rbp, -16
	movq	%rsp, %rbp
	.cfi_def_cfa_register %rbp
	subq	$16, %rsp
	movq	%rdi, -8(%rbp)
	movq	-8(%rbp), %rdi
	callq	_ZSt11__addressofINSt8__detail10_Hash_nodeIcLb0EEEEPT_RS3_
	addq	$16, %rsp
	popq	%rbp
	retq
.Lfunc_end106:
	.size	_ZSt9addressofINSt8__detail10_Hash_nodeIcLb0EEEEPT_RS3_, .Lfunc_end106-_ZSt9addressofINSt8__detail10_Hash_nodeIcLb0EEEEPT_RS3_
	.cfi_endproc
                                        # -- End function
	.section	.text._ZN9__gnu_cxx13new_allocatorIcE7destroyIcEEvPT_,"axG",@progbits,_ZN9__gnu_cxx13new_allocatorIcE7destroyIcEEvPT_,comdat
	.weak	_ZN9__gnu_cxx13new_allocatorIcE7destroyIcEEvPT_ # -- Begin function _ZN9__gnu_cxx13new_allocatorIcE7destroyIcEEvPT_
	.p2align	4, 0x90
	.type	_ZN9__gnu_cxx13new_allocatorIcE7destroyIcEEvPT_,@function
_ZN9__gnu_cxx13new_allocatorIcE7destroyIcEEvPT_: # @_ZN9__gnu_cxx13new_allocatorIcE7destroyIcEEvPT_
	.cfi_startproc
# %bb.0:
	pushq	%rbp
	.cfi_def_cfa_offset 16
	.cfi_offset %rbp, -16
	movq	%rsp, %rbp
	.cfi_def_cfa_register %rbp
	movq	%rdi, -8(%rbp)
	movq	%rsi, -16(%rbp)
	popq	%rbp
	retq
.Lfunc_end107:
	.size	_ZN9__gnu_cxx13new_allocatorIcE7destroyIcEEvPT_, .Lfunc_end107-_ZN9__gnu_cxx13new_allocatorIcE7destroyIcEEvPT_
	.cfi_endproc
                                        # -- End function
	.section	.text._ZNSt10_HashtableIccSaIcENSt8__detail9_IdentityESt8equal_toIcESt4hashIcENS1_18_Mod_range_hashingENS1_20_Default_ranged_hashENS1_20_Prime_rehash_policyENS1_17_Hashtable_traitsILb0ELb1ELb1EEEE5eraseERKc,"axG",@progbits,_ZNSt10_HashtableIccSaIcENSt8__detail9_IdentityESt8equal_toIcESt4hashIcENS1_18_Mod_range_hashingENS1_20_Default_ranged_hashENS1_20_Prime_rehash_policyENS1_17_Hashtable_traitsILb0ELb1ELb1EEEE5eraseERKc,comdat
	.weak	_ZNSt10_HashtableIccSaIcENSt8__detail9_IdentityESt8equal_toIcESt4hashIcENS1_18_Mod_range_hashingENS1_20_Default_ranged_hashENS1_20_Prime_rehash_policyENS1_17_Hashtable_traitsILb0ELb1ELb1EEEE5eraseERKc # -- Begin function _ZNSt10_HashtableIccSaIcENSt8__detail9_IdentityESt8equal_toIcESt4hashIcENS1_18_Mod_range_hashingENS1_20_Default_ranged_hashENS1_20_Prime_rehash_policyENS1_17_Hashtable_traitsILb0ELb1ELb1EEEE5eraseERKc
	.p2align	4, 0x90
	.type	_ZNSt10_HashtableIccSaIcENSt8__detail9_IdentityESt8equal_toIcESt4hashIcENS1_18_Mod_range_hashingENS1_20_Default_ranged_hashENS1_20_Prime_rehash_policyENS1_17_Hashtable_traitsILb0ELb1ELb1EEEE5eraseERKc,@function
_ZNSt10_HashtableIccSaIcENSt8__detail9_IdentityESt8equal_toIcESt4hashIcENS1_18_Mod_range_hashingENS1_20_Default_ranged_hashENS1_20_Prime_rehash_policyENS1_17_Hashtable_traitsILb0ELb1ELb1EEEE5eraseERKc: # @_ZNSt10_HashtableIccSaIcENSt8__detail9_IdentityESt8equal_toIcESt4hashIcENS1_18_Mod_range_hashingENS1_20_Default_ranged_hashENS1_20_Prime_rehash_policyENS1_17_Hashtable_traitsILb0ELb1ELb1EEEE5eraseERKc
	.cfi_startproc
# %bb.0:
	pushq	%rbp
	.cfi_def_cfa_offset 16
	.cfi_offset %rbp, -16
	movq	%rsp, %rbp
	.cfi_def_cfa_register %rbp
	subq	$32, %rsp
	movq	%rdi, -8(%rbp)
	movq	%rsi, -16(%rbp)
	movq	-8(%rbp), %rdi
	movq	-16(%rbp), %rsi
	callq	_ZNSt10_HashtableIccSaIcENSt8__detail9_IdentityESt8equal_toIcESt4hashIcENS1_18_Mod_range_hashingENS1_20_Default_ranged_hashENS1_20_Prime_rehash_policyENS1_17_Hashtable_traitsILb0ELb1ELb1EEEE8_M_eraseESt17integral_constantIbLb1EERKc
	addq	$32, %rsp
	popq	%rbp
	retq
.Lfunc_end108:
	.size	_ZNSt10_HashtableIccSaIcENSt8__detail9_IdentityESt8equal_toIcESt4hashIcENS1_18_Mod_range_hashingENS1_20_Default_ranged_hashENS1_20_Prime_rehash_policyENS1_17_Hashtable_traitsILb0ELb1ELb1EEEE5eraseERKc, .Lfunc_end108-_ZNSt10_HashtableIccSaIcENSt8__detail9_IdentityESt8equal_toIcESt4hashIcENS1_18_Mod_range_hashingENS1_20_Default_ranged_hashENS1_20_Prime_rehash_policyENS1_17_Hashtable_traitsILb0ELb1ELb1EEEE5eraseERKc
	.cfi_endproc
                                        # -- End function
	.section	.text._ZNSt10_HashtableIccSaIcENSt8__detail9_IdentityESt8equal_toIcESt4hashIcENS1_18_Mod_range_hashingENS1_20_Default_ranged_hashENS1_20_Prime_rehash_policyENS1_17_Hashtable_traitsILb0ELb1ELb1EEEE8_M_eraseESt17integral_constantIbLb1EERKc,"axG",@progbits,_ZNSt10_HashtableIccSaIcENSt8__detail9_IdentityESt8equal_toIcESt4hashIcENS1_18_Mod_range_hashingENS1_20_Default_ranged_hashENS1_20_Prime_rehash_policyENS1_17_Hashtable_traitsILb0ELb1ELb1EEEE8_M_eraseESt17integral_constantIbLb1EERKc,comdat
	.weak	_ZNSt10_HashtableIccSaIcENSt8__detail9_IdentityESt8equal_toIcESt4hashIcENS1_18_Mod_range_hashingENS1_20_Default_ranged_hashENS1_20_Prime_rehash_policyENS1_17_Hashtable_traitsILb0ELb1ELb1EEEE8_M_eraseESt17integral_constantIbLb1EERKc # -- Begin function _ZNSt10_HashtableIccSaIcENSt8__detail9_IdentityESt8equal_toIcESt4hashIcENS1_18_Mod_range_hashingENS1_20_Default_ranged_hashENS1_20_Prime_rehash_policyENS1_17_Hashtable_traitsILb0ELb1ELb1EEEE8_M_eraseESt17integral_constantIbLb1EERKc
	.p2align	4, 0x90
	.type	_ZNSt10_HashtableIccSaIcENSt8__detail9_IdentityESt8equal_toIcESt4hashIcENS1_18_Mod_range_hashingENS1_20_Default_ranged_hashENS1_20_Prime_rehash_policyENS1_17_Hashtable_traitsILb0ELb1ELb1EEEE8_M_eraseESt17integral_constantIbLb1EERKc,@function
_ZNSt10_HashtableIccSaIcENSt8__detail9_IdentityESt8equal_toIcESt4hashIcENS1_18_Mod_range_hashingENS1_20_Default_ranged_hashENS1_20_Prime_rehash_policyENS1_17_Hashtable_traitsILb0ELb1ELb1EEEE8_M_eraseESt17integral_constantIbLb1EERKc: # @_ZNSt10_HashtableIccSaIcENSt8__detail9_IdentityESt8equal_toIcESt4hashIcENS1_18_Mod_range_hashingENS1_20_Default_ranged_hashENS1_20_Prime_rehash_policyENS1_17_Hashtable_traitsILb0ELb1ELb1EEEE8_M_eraseESt17integral_constantIbLb1EERKc
	.cfi_startproc
# %bb.0:
	pushq	%rbp
	.cfi_def_cfa_offset 16
	.cfi_offset %rbp, -16
	movq	%rsp, %rbp
	.cfi_def_cfa_register %rbp
	subq	$80, %rsp
	movq	%rdi, -24(%rbp)
	movq	%rsi, -32(%rbp)
	movq	-24(%rbp), %rsi
	movq	%rsi, %rdi
	movq	-32(%rbp), %rax
	movq	%rsi, -80(%rbp)         # 8-byte Spill
	movq	%rax, %rsi
	callq	_ZNKSt8__detail15_Hash_code_baseIccNS_9_IdentityESt4hashIcENS_18_Mod_range_hashingENS_20_Default_ranged_hashELb0EE12_M_hash_codeERKc
	movq	%rax, -40(%rbp)
	movq	-32(%rbp), %rsi
	movq	-40(%rbp), %rdx
	movq	-80(%rbp), %rdi         # 8-byte Reload
	callq	_ZNKSt10_HashtableIccSaIcENSt8__detail9_IdentityESt8equal_toIcESt4hashIcENS1_18_Mod_range_hashingENS1_20_Default_ranged_hashENS1_20_Prime_rehash_policyENS1_17_Hashtable_traitsILb0ELb1ELb1EEEE15_M_bucket_indexERKcm
	movq	%rax, -48(%rbp)
	movq	-48(%rbp), %rsi
	movq	-32(%rbp), %rdx
	movq	-40(%rbp), %rcx
	movq	-80(%rbp), %rdi         # 8-byte Reload
	callq	_ZNKSt10_HashtableIccSaIcENSt8__detail9_IdentityESt8equal_toIcESt4hashIcENS1_18_Mod_range_hashingENS1_20_Default_ranged_hashENS1_20_Prime_rehash_policyENS1_17_Hashtable_traitsILb0ELb1ELb1EEEE19_M_find_before_nodeEmRKcm
	movq	%rax, -56(%rbp)
	cmpq	$0, -56(%rbp)
	jne	.LBB109_2
# %bb.1:
	movq	$0, -8(%rbp)
	jmp	.LBB109_3
.LBB109_2:
	movq	-56(%rbp), %rax
	movq	(%rax), %rax
	movq	%rax, -64(%rbp)
	movq	-48(%rbp), %rsi
	movq	-56(%rbp), %rdx
	movq	-64(%rbp), %rcx
	movq	-80(%rbp), %rdi         # 8-byte Reload
	callq	_ZNSt10_HashtableIccSaIcENSt8__detail9_IdentityESt8equal_toIcESt4hashIcENS1_18_Mod_range_hashingENS1_20_Default_ranged_hashENS1_20_Prime_rehash_policyENS1_17_Hashtable_traitsILb0ELb1ELb1EEEE8_M_eraseEmPNS1_15_Hash_node_baseEPNS1_10_Hash_nodeIcLb0EEE
	movq	%rax, -72(%rbp)
	movq	$1, -8(%rbp)
.LBB109_3:
	movq	-8(%rbp), %rax
	addq	$80, %rsp
	popq	%rbp
	retq
.Lfunc_end109:
	.size	_ZNSt10_HashtableIccSaIcENSt8__detail9_IdentityESt8equal_toIcESt4hashIcENS1_18_Mod_range_hashingENS1_20_Default_ranged_hashENS1_20_Prime_rehash_policyENS1_17_Hashtable_traitsILb0ELb1ELb1EEEE8_M_eraseESt17integral_constantIbLb1EERKc, .Lfunc_end109-_ZNSt10_HashtableIccSaIcENSt8__detail9_IdentityESt8equal_toIcESt4hashIcENS1_18_Mod_range_hashingENS1_20_Default_ranged_hashENS1_20_Prime_rehash_policyENS1_17_Hashtable_traitsILb0ELb1ELb1EEEE8_M_eraseESt17integral_constantIbLb1EERKc
	.cfi_endproc
                                        # -- End function
	.section	.text._ZNSt10_HashtableIccSaIcENSt8__detail9_IdentityESt8equal_toIcESt4hashIcENS1_18_Mod_range_hashingENS1_20_Default_ranged_hashENS1_20_Prime_rehash_policyENS1_17_Hashtable_traitsILb0ELb1ELb1EEEE8_M_eraseEmPNS1_15_Hash_node_baseEPNS1_10_Hash_nodeIcLb0EEE,"axG",@progbits,_ZNSt10_HashtableIccSaIcENSt8__detail9_IdentityESt8equal_toIcESt4hashIcENS1_18_Mod_range_hashingENS1_20_Default_ranged_hashENS1_20_Prime_rehash_policyENS1_17_Hashtable_traitsILb0ELb1ELb1EEEE8_M_eraseEmPNS1_15_Hash_node_baseEPNS1_10_Hash_nodeIcLb0EEE,comdat
	.weak	_ZNSt10_HashtableIccSaIcENSt8__detail9_IdentityESt8equal_toIcESt4hashIcENS1_18_Mod_range_hashingENS1_20_Default_ranged_hashENS1_20_Prime_rehash_policyENS1_17_Hashtable_traitsILb0ELb1ELb1EEEE8_M_eraseEmPNS1_15_Hash_node_baseEPNS1_10_Hash_nodeIcLb0EEE # -- Begin function _ZNSt10_HashtableIccSaIcENSt8__detail9_IdentityESt8equal_toIcESt4hashIcENS1_18_Mod_range_hashingENS1_20_Default_ranged_hashENS1_20_Prime_rehash_policyENS1_17_Hashtable_traitsILb0ELb1ELb1EEEE8_M_eraseEmPNS1_15_Hash_node_baseEPNS1_10_Hash_nodeIcLb0EEE
	.p2align	4, 0x90
	.type	_ZNSt10_HashtableIccSaIcENSt8__detail9_IdentityESt8equal_toIcESt4hashIcENS1_18_Mod_range_hashingENS1_20_Default_ranged_hashENS1_20_Prime_rehash_policyENS1_17_Hashtable_traitsILb0ELb1ELb1EEEE8_M_eraseEmPNS1_15_Hash_node_baseEPNS1_10_Hash_nodeIcLb0EEE,@function
_ZNSt10_HashtableIccSaIcENSt8__detail9_IdentityESt8equal_toIcESt4hashIcENS1_18_Mod_range_hashingENS1_20_Default_ranged_hashENS1_20_Prime_rehash_policyENS1_17_Hashtable_traitsILb0ELb1ELb1EEEE8_M_eraseEmPNS1_15_Hash_node_baseEPNS1_10_Hash_nodeIcLb0EEE: # @_ZNSt10_HashtableIccSaIcENSt8__detail9_IdentityESt8equal_toIcESt4hashIcENS1_18_Mod_range_hashingENS1_20_Default_ranged_hashENS1_20_Prime_rehash_policyENS1_17_Hashtable_traitsILb0ELb1ELb1EEEE8_M_eraseEmPNS1_15_Hash_node_baseEPNS1_10_Hash_nodeIcLb0EEE
	.cfi_startproc
# %bb.0:
	pushq	%rbp
	.cfi_def_cfa_offset 16
	.cfi_offset %rbp, -16
	movq	%rsp, %rbp
	.cfi_def_cfa_register %rbp
	subq	$80, %rsp
	movq	%rdi, -16(%rbp)
	movq	%rsi, -24(%rbp)
	movq	%rdx, -32(%rbp)
	movq	%rcx, -40(%rbp)
	movq	-16(%rbp), %rcx
	movq	-32(%rbp), %rdx
	movq	(%rcx), %rsi
	movq	-24(%rbp), %rdi
	cmpq	(%rsi,%rdi,8), %rdx
	movq	%rcx, -56(%rbp)         # 8-byte Spill
	jne	.LBB110_5
# %bb.1:
	movq	-24(%rbp), %rsi
	movq	-40(%rbp), %rdi
	movq	%rsi, -64(%rbp)         # 8-byte Spill
	callq	_ZNKSt8__detail10_Hash_nodeIcLb0EE7_M_nextEv
	movq	-40(%rbp), %rsi
	cmpq	$0, (%rsi)
	movq	%rax, -72(%rbp)         # 8-byte Spill
	je	.LBB110_3
# %bb.2:
	movq	-40(%rbp), %rdi
	callq	_ZNKSt8__detail10_Hash_nodeIcLb0EE7_M_nextEv
	movq	-56(%rbp), %rdi         # 8-byte Reload
	movq	%rax, %rsi
	callq	_ZNKSt10_HashtableIccSaIcENSt8__detail9_IdentityESt8equal_toIcESt4hashIcENS1_18_Mod_range_hashingENS1_20_Default_ranged_hashENS1_20_Prime_rehash_policyENS1_17_Hashtable_traitsILb0ELb1ELb1EEEE15_M_bucket_indexEPNS1_10_Hash_nodeIcLb0EEE
	movq	%rax, -80(%rbp)         # 8-byte Spill
	jmp	.LBB110_4
.LBB110_3:
	xorl	%eax, %eax
	movl	%eax, %ecx
	movq	%rcx, -80(%rbp)         # 8-byte Spill
	jmp	.LBB110_4
.LBB110_4:
	movq	-80(%rbp), %rax         # 8-byte Reload
	movq	-56(%rbp), %rdi         # 8-byte Reload
	movq	-64(%rbp), %rsi         # 8-byte Reload
	movq	-72(%rbp), %rdx         # 8-byte Reload
	movq	%rax, %rcx
	callq	_ZNSt10_HashtableIccSaIcENSt8__detail9_IdentityESt8equal_toIcESt4hashIcENS1_18_Mod_range_hashingENS1_20_Default_ranged_hashENS1_20_Prime_rehash_policyENS1_17_Hashtable_traitsILb0ELb1ELb1EEEE22_M_remove_bucket_beginEmPNS1_10_Hash_nodeIcLb0EEEm
	jmp	.LBB110_10
.LBB110_5:
	movq	-40(%rbp), %rax
	cmpq	$0, (%rax)
	je	.LBB110_9
# %bb.6:
	movq	-40(%rbp), %rdi
	callq	_ZNKSt8__detail10_Hash_nodeIcLb0EE7_M_nextEv
	movq	-56(%rbp), %rdi         # 8-byte Reload
	movq	%rax, %rsi
	callq	_ZNKSt10_HashtableIccSaIcENSt8__detail9_IdentityESt8equal_toIcESt4hashIcENS1_18_Mod_range_hashingENS1_20_Default_ranged_hashENS1_20_Prime_rehash_policyENS1_17_Hashtable_traitsILb0ELb1ELb1EEEE15_M_bucket_indexEPNS1_10_Hash_nodeIcLb0EEE
	movq	%rax, -48(%rbp)
	movq	-48(%rbp), %rax
	cmpq	-24(%rbp), %rax
	je	.LBB110_8
# %bb.7:
	movq	-32(%rbp), %rax
	movq	-56(%rbp), %rcx         # 8-byte Reload
	movq	(%rcx), %rdx
	movq	-48(%rbp), %rsi
	movq	%rax, (%rdx,%rsi,8)
.LBB110_8:
	jmp	.LBB110_9
.LBB110_9:
	jmp	.LBB110_10
.LBB110_10:
	movq	-40(%rbp), %rax
	movq	(%rax), %rax
	movq	-32(%rbp), %rcx
	movq	%rax, (%rcx)
	movq	-40(%rbp), %rdi
	callq	_ZNKSt8__detail10_Hash_nodeIcLb0EE7_M_nextEv
	leaq	-8(%rbp), %rdi
	movq	%rax, %rsi
	callq	_ZNSt8__detail14_Node_iteratorIcLb1ELb0EEC2EPNS_10_Hash_nodeIcLb0EEE
	movq	-56(%rbp), %rax         # 8-byte Reload
	movq	-40(%rbp), %rsi
	movq	%rax, %rdi
	callq	_ZNSt8__detail16_Hashtable_allocISaINS_10_Hash_nodeIcLb0EEEEE18_M_deallocate_nodeEPS2_
	movq	-56(%rbp), %rax         # 8-byte Reload
	movq	24(%rax), %rcx
	addq	$-1, %rcx
	movq	%rcx, 24(%rax)
	movq	-8(%rbp), %rax
	addq	$80, %rsp
	popq	%rbp
	retq
.Lfunc_end110:
	.size	_ZNSt10_HashtableIccSaIcENSt8__detail9_IdentityESt8equal_toIcESt4hashIcENS1_18_Mod_range_hashingENS1_20_Default_ranged_hashENS1_20_Prime_rehash_policyENS1_17_Hashtable_traitsILb0ELb1ELb1EEEE8_M_eraseEmPNS1_15_Hash_node_baseEPNS1_10_Hash_nodeIcLb0EEE, .Lfunc_end110-_ZNSt10_HashtableIccSaIcENSt8__detail9_IdentityESt8equal_toIcESt4hashIcENS1_18_Mod_range_hashingENS1_20_Default_ranged_hashENS1_20_Prime_rehash_policyENS1_17_Hashtable_traitsILb0ELb1ELb1EEEE8_M_eraseEmPNS1_15_Hash_node_baseEPNS1_10_Hash_nodeIcLb0EEE
	.cfi_endproc
                                        # -- End function
	.section	.text._ZNSt10_HashtableIccSaIcENSt8__detail9_IdentityESt8equal_toIcESt4hashIcENS1_18_Mod_range_hashingENS1_20_Default_ranged_hashENS1_20_Prime_rehash_policyENS1_17_Hashtable_traitsILb0ELb1ELb1EEEE22_M_remove_bucket_beginEmPNS1_10_Hash_nodeIcLb0EEEm,"axG",@progbits,_ZNSt10_HashtableIccSaIcENSt8__detail9_IdentityESt8equal_toIcESt4hashIcENS1_18_Mod_range_hashingENS1_20_Default_ranged_hashENS1_20_Prime_rehash_policyENS1_17_Hashtable_traitsILb0ELb1ELb1EEEE22_M_remove_bucket_beginEmPNS1_10_Hash_nodeIcLb0EEEm,comdat
	.weak	_ZNSt10_HashtableIccSaIcENSt8__detail9_IdentityESt8equal_toIcESt4hashIcENS1_18_Mod_range_hashingENS1_20_Default_ranged_hashENS1_20_Prime_rehash_policyENS1_17_Hashtable_traitsILb0ELb1ELb1EEEE22_M_remove_bucket_beginEmPNS1_10_Hash_nodeIcLb0EEEm # -- Begin function _ZNSt10_HashtableIccSaIcENSt8__detail9_IdentityESt8equal_toIcESt4hashIcENS1_18_Mod_range_hashingENS1_20_Default_ranged_hashENS1_20_Prime_rehash_policyENS1_17_Hashtable_traitsILb0ELb1ELb1EEEE22_M_remove_bucket_beginEmPNS1_10_Hash_nodeIcLb0EEEm
	.p2align	4, 0x90
	.type	_ZNSt10_HashtableIccSaIcENSt8__detail9_IdentityESt8equal_toIcESt4hashIcENS1_18_Mod_range_hashingENS1_20_Default_ranged_hashENS1_20_Prime_rehash_policyENS1_17_Hashtable_traitsILb0ELb1ELb1EEEE22_M_remove_bucket_beginEmPNS1_10_Hash_nodeIcLb0EEEm,@function
_ZNSt10_HashtableIccSaIcENSt8__detail9_IdentityESt8equal_toIcESt4hashIcENS1_18_Mod_range_hashingENS1_20_Default_ranged_hashENS1_20_Prime_rehash_policyENS1_17_Hashtable_traitsILb0ELb1ELb1EEEE22_M_remove_bucket_beginEmPNS1_10_Hash_nodeIcLb0EEEm: # @_ZNSt10_HashtableIccSaIcENSt8__detail9_IdentityESt8equal_toIcESt4hashIcENS1_18_Mod_range_hashingENS1_20_Default_ranged_hashENS1_20_Prime_rehash_policyENS1_17_Hashtable_traitsILb0ELb1ELb1EEEE22_M_remove_bucket_beginEmPNS1_10_Hash_nodeIcLb0EEEm
	.cfi_startproc
# %bb.0:
	pushq	%rbp
	.cfi_def_cfa_offset 16
	.cfi_offset %rbp, -16
	movq	%rsp, %rbp
	.cfi_def_cfa_register %rbp
	movq	%rdi, -8(%rbp)
	movq	%rsi, -16(%rbp)
	movq	%rdx, -24(%rbp)
	movq	%rcx, -32(%rbp)
	movq	-8(%rbp), %rcx
	cmpq	$0, -24(%rbp)
	movq	%rcx, -40(%rbp)         # 8-byte Spill
	je	.LBB111_2
# %bb.1:
	movq	-32(%rbp), %rax
	cmpq	-16(%rbp), %rax
	je	.LBB111_7
.LBB111_2:
	cmpq	$0, -24(%rbp)
	je	.LBB111_4
# %bb.3:
	movq	-40(%rbp), %rax         # 8-byte Reload
	movq	(%rax), %rcx
	movq	-16(%rbp), %rdx
	movq	(%rcx,%rdx,8), %rcx
	movq	(%rax), %rdx
	movq	-32(%rbp), %rsi
	movq	%rcx, (%rdx,%rsi,8)
.LBB111_4:
	movq	-40(%rbp), %rax         # 8-byte Reload
	addq	$16, %rax
	movq	-40(%rbp), %rcx         # 8-byte Reload
	movq	(%rcx), %rdx
	movq	-16(%rbp), %rsi
	cmpq	(%rdx,%rsi,8), %rax
	jne	.LBB111_6
# %bb.5:
	movq	-24(%rbp), %rax
	movq	-40(%rbp), %rcx         # 8-byte Reload
	movq	%rax, 16(%rcx)
.LBB111_6:
	movq	-40(%rbp), %rax         # 8-byte Reload
	movq	(%rax), %rcx
	movq	-16(%rbp), %rdx
	movq	$0, (%rcx,%rdx,8)
.LBB111_7:
	popq	%rbp
	retq
.Lfunc_end111:
	.size	_ZNSt10_HashtableIccSaIcENSt8__detail9_IdentityESt8equal_toIcESt4hashIcENS1_18_Mod_range_hashingENS1_20_Default_ranged_hashENS1_20_Prime_rehash_policyENS1_17_Hashtable_traitsILb0ELb1ELb1EEEE22_M_remove_bucket_beginEmPNS1_10_Hash_nodeIcLb0EEEm, .Lfunc_end111-_ZNSt10_HashtableIccSaIcENSt8__detail9_IdentityESt8equal_toIcESt4hashIcENS1_18_Mod_range_hashingENS1_20_Default_ranged_hashENS1_20_Prime_rehash_policyENS1_17_Hashtable_traitsILb0ELb1ELb1EEEE22_M_remove_bucket_beginEmPNS1_10_Hash_nodeIcLb0EEEm
	.cfi_endproc
                                        # -- End function
	.section	.text._ZNSt10_HashtableIccSaIcENSt8__detail9_IdentityESt8equal_toIcESt4hashIcENS1_18_Mod_range_hashingENS1_20_Default_ranged_hashENS1_20_Prime_rehash_policyENS1_17_Hashtable_traitsILb0ELb1ELb1EEEED2Ev,"axG",@progbits,_ZNSt10_HashtableIccSaIcENSt8__detail9_IdentityESt8equal_toIcESt4hashIcENS1_18_Mod_range_hashingENS1_20_Default_ranged_hashENS1_20_Prime_rehash_policyENS1_17_Hashtable_traitsILb0ELb1ELb1EEEED2Ev,comdat
	.weak	_ZNSt10_HashtableIccSaIcENSt8__detail9_IdentityESt8equal_toIcESt4hashIcENS1_18_Mod_range_hashingENS1_20_Default_ranged_hashENS1_20_Prime_rehash_policyENS1_17_Hashtable_traitsILb0ELb1ELb1EEEED2Ev # -- Begin function _ZNSt10_HashtableIccSaIcENSt8__detail9_IdentityESt8equal_toIcESt4hashIcENS1_18_Mod_range_hashingENS1_20_Default_ranged_hashENS1_20_Prime_rehash_policyENS1_17_Hashtable_traitsILb0ELb1ELb1EEEED2Ev
	.p2align	4, 0x90
	.type	_ZNSt10_HashtableIccSaIcENSt8__detail9_IdentityESt8equal_toIcESt4hashIcENS1_18_Mod_range_hashingENS1_20_Default_ranged_hashENS1_20_Prime_rehash_policyENS1_17_Hashtable_traitsILb0ELb1ELb1EEEED2Ev,@function
_ZNSt10_HashtableIccSaIcENSt8__detail9_IdentityESt8equal_toIcESt4hashIcENS1_18_Mod_range_hashingENS1_20_Default_ranged_hashENS1_20_Prime_rehash_policyENS1_17_Hashtable_traitsILb0ELb1ELb1EEEED2Ev: # @_ZNSt10_HashtableIccSaIcENSt8__detail9_IdentityESt8equal_toIcESt4hashIcENS1_18_Mod_range_hashingENS1_20_Default_ranged_hashENS1_20_Prime_rehash_policyENS1_17_Hashtable_traitsILb0ELb1ELb1EEEED2Ev
.Lfunc_begin9:
	.cfi_startproc
	.cfi_personality 3, __gxx_personality_v0
	.cfi_lsda 3, .Lexception9
# %bb.0:
	pushq	%rbp
	.cfi_def_cfa_offset 16
	.cfi_offset %rbp, -16
	movq	%rsp, %rbp
	.cfi_def_cfa_register %rbp
	subq	$32, %rsp
	movq	%rdi, -8(%rbp)
	movq	-8(%rbp), %rdi
	movq	%rdi, -32(%rbp)         # 8-byte Spill
	callq	_ZNSt10_HashtableIccSaIcENSt8__detail9_IdentityESt8equal_toIcESt4hashIcENS1_18_Mod_range_hashingENS1_20_Default_ranged_hashENS1_20_Prime_rehash_policyENS1_17_Hashtable_traitsILb0ELb1ELb1EEEE5clearEv
.Ltmp91:
	movq	-32(%rbp), %rdi         # 8-byte Reload
	callq	_ZNSt10_HashtableIccSaIcENSt8__detail9_IdentityESt8equal_toIcESt4hashIcENS1_18_Mod_range_hashingENS1_20_Default_ranged_hashENS1_20_Prime_rehash_policyENS1_17_Hashtable_traitsILb0ELb1ELb1EEEE21_M_deallocate_bucketsEv
.Ltmp92:
	jmp	.LBB112_1
.LBB112_1:
	movq	-32(%rbp), %rax         # 8-byte Reload
	movq	%rax, %rdi
	callq	_ZNSt8__detail16_Hashtable_allocISaINS_10_Hash_nodeIcLb0EEEEED2Ev
	addq	$32, %rsp
	popq	%rbp
	retq
.LBB112_2:
.Ltmp93:
	movl	%edx, %ecx
	movq	%rax, -16(%rbp)
	movl	%ecx, -20(%rbp)
	movq	-32(%rbp), %rax         # 8-byte Reload
	movq	%rax, %rdi
	callq	_ZNSt8__detail16_Hashtable_allocISaINS_10_Hash_nodeIcLb0EEEEED2Ev
# %bb.3:
	movq	-16(%rbp), %rdi
	callq	__clang_call_terminate
.Lfunc_end112:
	.size	_ZNSt10_HashtableIccSaIcENSt8__detail9_IdentityESt8equal_toIcESt4hashIcENS1_18_Mod_range_hashingENS1_20_Default_ranged_hashENS1_20_Prime_rehash_policyENS1_17_Hashtable_traitsILb0ELb1ELb1EEEED2Ev, .Lfunc_end112-_ZNSt10_HashtableIccSaIcENSt8__detail9_IdentityESt8equal_toIcESt4hashIcENS1_18_Mod_range_hashingENS1_20_Default_ranged_hashENS1_20_Prime_rehash_policyENS1_17_Hashtable_traitsILb0ELb1ELb1EEEED2Ev
	.cfi_endproc
	.section	.gcc_except_table,"a",@progbits
	.p2align	2
GCC_except_table112:
.Lexception9:
	.byte	255                     # @LPStart Encoding = omit
	.byte	3                       # @TType Encoding = udata4
	.byte	21                      # @TType base offset
	.byte	3                       # Call site Encoding = udata4
	.byte	13                      # Call site table length
	.long	.Ltmp91-.Lfunc_begin9   # >> Call Site 1 <<
	.long	.Ltmp92-.Ltmp91         #   Call between .Ltmp91 and .Ltmp92
	.long	.Ltmp93-.Lfunc_begin9   #     jumps to .Ltmp93
	.byte	1                       #   On action: 1
	.byte	1                       # >> Action Record 1 <<
                                        #   Catch TypeInfo 1
	.byte	0                       #   No further actions
                                        # >> Catch TypeInfos <<
	.long	0                       # TypeInfo 1
	.p2align	2
                                        # -- End function
	.section	.text._ZNSt10_HashtableIccSaIcENSt8__detail9_IdentityESt8equal_toIcESt4hashIcENS1_18_Mod_range_hashingENS1_20_Default_ranged_hashENS1_20_Prime_rehash_policyENS1_17_Hashtable_traitsILb0ELb1ELb1EEEE5clearEv,"axG",@progbits,_ZNSt10_HashtableIccSaIcENSt8__detail9_IdentityESt8equal_toIcESt4hashIcENS1_18_Mod_range_hashingENS1_20_Default_ranged_hashENS1_20_Prime_rehash_policyENS1_17_Hashtable_traitsILb0ELb1ELb1EEEE5clearEv,comdat
	.weak	_ZNSt10_HashtableIccSaIcENSt8__detail9_IdentityESt8equal_toIcESt4hashIcENS1_18_Mod_range_hashingENS1_20_Default_ranged_hashENS1_20_Prime_rehash_policyENS1_17_Hashtable_traitsILb0ELb1ELb1EEEE5clearEv # -- Begin function _ZNSt10_HashtableIccSaIcENSt8__detail9_IdentityESt8equal_toIcESt4hashIcENS1_18_Mod_range_hashingENS1_20_Default_ranged_hashENS1_20_Prime_rehash_policyENS1_17_Hashtable_traitsILb0ELb1ELb1EEEE5clearEv
	.p2align	4, 0x90
	.type	_ZNSt10_HashtableIccSaIcENSt8__detail9_IdentityESt8equal_toIcESt4hashIcENS1_18_Mod_range_hashingENS1_20_Default_ranged_hashENS1_20_Prime_rehash_policyENS1_17_Hashtable_traitsILb0ELb1ELb1EEEE5clearEv,@function
_ZNSt10_HashtableIccSaIcENSt8__detail9_IdentityESt8equal_toIcESt4hashIcENS1_18_Mod_range_hashingENS1_20_Default_ranged_hashENS1_20_Prime_rehash_policyENS1_17_Hashtable_traitsILb0ELb1ELb1EEEE5clearEv: # @_ZNSt10_HashtableIccSaIcENSt8__detail9_IdentityESt8equal_toIcESt4hashIcENS1_18_Mod_range_hashingENS1_20_Default_ranged_hashENS1_20_Prime_rehash_policyENS1_17_Hashtable_traitsILb0ELb1ELb1EEEE5clearEv
.Lfunc_begin10:
	.cfi_startproc
	.cfi_personality 3, __gxx_personality_v0
	.cfi_lsda 3, .Lexception10
# %bb.0:
	pushq	%rbp
	.cfi_def_cfa_offset 16
	.cfi_offset %rbp, -16
	movq	%rsp, %rbp
	.cfi_def_cfa_register %rbp
	subq	$48, %rsp
	movq	%rdi, -8(%rbp)
	movq	-8(%rbp), %rdi
	movq	%rdi, %rax
.Ltmp94:
	movq	%rdi, -16(%rbp)         # 8-byte Spill
	movq	%rax, -24(%rbp)         # 8-byte Spill
	callq	_ZNKSt10_HashtableIccSaIcENSt8__detail9_IdentityESt8equal_toIcESt4hashIcENS1_18_Mod_range_hashingENS1_20_Default_ranged_hashENS1_20_Prime_rehash_policyENS1_17_Hashtable_traitsILb0ELb1ELb1EEEE8_M_beginEv
.Ltmp95:
	movq	%rax, -32(%rbp)         # 8-byte Spill
	jmp	.LBB113_1
.LBB113_1:
.Ltmp96:
	movq	-16(%rbp), %rdi         # 8-byte Reload
	movq	-32(%rbp), %rsi         # 8-byte Reload
	callq	_ZNSt8__detail16_Hashtable_allocISaINS_10_Hash_nodeIcLb0EEEEE19_M_deallocate_nodesEPS2_
.Ltmp97:
	jmp	.LBB113_2
.LBB113_2:
	xorl	%esi, %esi
	movq	-24(%rbp), %rax         # 8-byte Reload
	movq	(%rax), %rcx
	movq	8(%rax), %rdx
	shlq	$3, %rdx
	movq	%rcx, %rdi
	callq	memset
	movq	-24(%rbp), %rax         # 8-byte Reload
	movq	$0, 24(%rax)
	movq	$0, 16(%rax)
	addq	$48, %rsp
	popq	%rbp
	retq
.LBB113_3:
.Ltmp98:
	movl	%edx, %ecx
	movq	%rax, %rdi
	movl	%ecx, -36(%rbp)         # 4-byte Spill
	callq	__clang_call_terminate
.Lfunc_end113:
	.size	_ZNSt10_HashtableIccSaIcENSt8__detail9_IdentityESt8equal_toIcESt4hashIcENS1_18_Mod_range_hashingENS1_20_Default_ranged_hashENS1_20_Prime_rehash_policyENS1_17_Hashtable_traitsILb0ELb1ELb1EEEE5clearEv, .Lfunc_end113-_ZNSt10_HashtableIccSaIcENSt8__detail9_IdentityESt8equal_toIcESt4hashIcENS1_18_Mod_range_hashingENS1_20_Default_ranged_hashENS1_20_Prime_rehash_policyENS1_17_Hashtable_traitsILb0ELb1ELb1EEEE5clearEv
	.cfi_endproc
	.section	.gcc_except_table,"a",@progbits
	.p2align	2
GCC_except_table113:
.Lexception10:
	.byte	255                     # @LPStart Encoding = omit
	.byte	3                       # @TType Encoding = udata4
	.asciz	"\242\200\200"          # @TType base offset
	.byte	3                       # Call site Encoding = udata4
	.byte	26                      # Call site table length
	.long	.Ltmp94-.Lfunc_begin10  # >> Call Site 1 <<
	.long	.Ltmp97-.Ltmp94         #   Call between .Ltmp94 and .Ltmp97
	.long	.Ltmp98-.Lfunc_begin10  #     jumps to .Ltmp98
	.byte	1                       #   On action: 1
	.long	.Ltmp97-.Lfunc_begin10  # >> Call Site 2 <<
	.long	.Lfunc_end113-.Ltmp97   #   Call between .Ltmp97 and .Lfunc_end113
	.long	0                       #     has no landing pad
	.byte	0                       #   On action: cleanup
	.byte	1                       # >> Action Record 1 <<
                                        #   Catch TypeInfo 1
	.byte	0                       #   No further actions
                                        # >> Catch TypeInfos <<
	.long	0                       # TypeInfo 1
	.p2align	2
                                        # -- End function
	.section	.text._ZNSt8__detail16_Hashtable_allocISaINS_10_Hash_nodeIcLb0EEEEED2Ev,"axG",@progbits,_ZNSt8__detail16_Hashtable_allocISaINS_10_Hash_nodeIcLb0EEEEED2Ev,comdat
	.weak	_ZNSt8__detail16_Hashtable_allocISaINS_10_Hash_nodeIcLb0EEEEED2Ev # -- Begin function _ZNSt8__detail16_Hashtable_allocISaINS_10_Hash_nodeIcLb0EEEEED2Ev
	.p2align	4, 0x90
	.type	_ZNSt8__detail16_Hashtable_allocISaINS_10_Hash_nodeIcLb0EEEEED2Ev,@function
_ZNSt8__detail16_Hashtable_allocISaINS_10_Hash_nodeIcLb0EEEEED2Ev: # @_ZNSt8__detail16_Hashtable_allocISaINS_10_Hash_nodeIcLb0EEEEED2Ev
	.cfi_startproc
# %bb.0:
	pushq	%rbp
	.cfi_def_cfa_offset 16
	.cfi_offset %rbp, -16
	movq	%rsp, %rbp
	.cfi_def_cfa_register %rbp
	subq	$16, %rsp
	movq	%rdi, -8(%rbp)
	movq	-8(%rbp), %rdi
	callq	_ZNSt8__detail21_Hashtable_ebo_helperILi0ESaINS_10_Hash_nodeIcLb0EEEELb1EED2Ev
	addq	$16, %rsp
	popq	%rbp
	retq
.Lfunc_end114:
	.size	_ZNSt8__detail16_Hashtable_allocISaINS_10_Hash_nodeIcLb0EEEEED2Ev, .Lfunc_end114-_ZNSt8__detail16_Hashtable_allocISaINS_10_Hash_nodeIcLb0EEEEED2Ev
	.cfi_endproc
                                        # -- End function
	.section	.text._ZNSt8__detail16_Hashtable_allocISaINS_10_Hash_nodeIcLb0EEEEE19_M_deallocate_nodesEPS2_,"axG",@progbits,_ZNSt8__detail16_Hashtable_allocISaINS_10_Hash_nodeIcLb0EEEEE19_M_deallocate_nodesEPS2_,comdat
	.weak	_ZNSt8__detail16_Hashtable_allocISaINS_10_Hash_nodeIcLb0EEEEE19_M_deallocate_nodesEPS2_ # -- Begin function _ZNSt8__detail16_Hashtable_allocISaINS_10_Hash_nodeIcLb0EEEEE19_M_deallocate_nodesEPS2_
	.p2align	4, 0x90
	.type	_ZNSt8__detail16_Hashtable_allocISaINS_10_Hash_nodeIcLb0EEEEE19_M_deallocate_nodesEPS2_,@function
_ZNSt8__detail16_Hashtable_allocISaINS_10_Hash_nodeIcLb0EEEEE19_M_deallocate_nodesEPS2_: # @_ZNSt8__detail16_Hashtable_allocISaINS_10_Hash_nodeIcLb0EEEEE19_M_deallocate_nodesEPS2_
	.cfi_startproc
# %bb.0:
	pushq	%rbp
	.cfi_def_cfa_offset 16
	.cfi_offset %rbp, -16
	movq	%rsp, %rbp
	.cfi_def_cfa_register %rbp
	subq	$32, %rsp
	movq	%rdi, -8(%rbp)
	movq	%rsi, -16(%rbp)
	movq	-8(%rbp), %rdi
	movq	%rdi, -32(%rbp)         # 8-byte Spill
.LBB115_1:                              # =>This Inner Loop Header: Depth=1
	cmpq	$0, -16(%rbp)
	je	.LBB115_3
# %bb.2:                                #   in Loop: Header=BB115_1 Depth=1
	movq	-16(%rbp), %rax
	movq	%rax, -24(%rbp)
	movq	-16(%rbp), %rdi
	callq	_ZNKSt8__detail10_Hash_nodeIcLb0EE7_M_nextEv
	movq	%rax, -16(%rbp)
	movq	-24(%rbp), %rsi
	movq	-32(%rbp), %rdi         # 8-byte Reload
	callq	_ZNSt8__detail16_Hashtable_allocISaINS_10_Hash_nodeIcLb0EEEEE18_M_deallocate_nodeEPS2_
	jmp	.LBB115_1
.LBB115_3:
	addq	$32, %rsp
	popq	%rbp
	retq
.Lfunc_end115:
	.size	_ZNSt8__detail16_Hashtable_allocISaINS_10_Hash_nodeIcLb0EEEEE19_M_deallocate_nodesEPS2_, .Lfunc_end115-_ZNSt8__detail16_Hashtable_allocISaINS_10_Hash_nodeIcLb0EEEEE19_M_deallocate_nodesEPS2_
	.cfi_endproc
                                        # -- End function
	.section	.text._ZNSt8__detail21_Hashtable_ebo_helperILi0ESaINS_10_Hash_nodeIcLb0EEEELb1EED2Ev,"axG",@progbits,_ZNSt8__detail21_Hashtable_ebo_helperILi0ESaINS_10_Hash_nodeIcLb0EEEELb1EED2Ev,comdat
	.weak	_ZNSt8__detail21_Hashtable_ebo_helperILi0ESaINS_10_Hash_nodeIcLb0EEEELb1EED2Ev # -- Begin function _ZNSt8__detail21_Hashtable_ebo_helperILi0ESaINS_10_Hash_nodeIcLb0EEEELb1EED2Ev
	.p2align	4, 0x90
	.type	_ZNSt8__detail21_Hashtable_ebo_helperILi0ESaINS_10_Hash_nodeIcLb0EEEELb1EED2Ev,@function
_ZNSt8__detail21_Hashtable_ebo_helperILi0ESaINS_10_Hash_nodeIcLb0EEEELb1EED2Ev: # @_ZNSt8__detail21_Hashtable_ebo_helperILi0ESaINS_10_Hash_nodeIcLb0EEEELb1EED2Ev
	.cfi_startproc
# %bb.0:
	pushq	%rbp
	.cfi_def_cfa_offset 16
	.cfi_offset %rbp, -16
	movq	%rsp, %rbp
	.cfi_def_cfa_register %rbp
	subq	$16, %rsp
	movq	%rdi, -8(%rbp)
	movq	-8(%rbp), %rdi
	callq	_ZNSaINSt8__detail10_Hash_nodeIcLb0EEEED2Ev
	addq	$16, %rsp
	popq	%rbp
	retq
.Lfunc_end116:
	.size	_ZNSt8__detail21_Hashtable_ebo_helperILi0ESaINS_10_Hash_nodeIcLb0EEEELb1EED2Ev, .Lfunc_end116-_ZNSt8__detail21_Hashtable_ebo_helperILi0ESaINS_10_Hash_nodeIcLb0EEEELb1EED2Ev
	.cfi_endproc
                                        # -- End function
	.section	.text._ZNSaINSt8__detail10_Hash_nodeIcLb0EEEED2Ev,"axG",@progbits,_ZNSaINSt8__detail10_Hash_nodeIcLb0EEEED2Ev,comdat
	.weak	_ZNSaINSt8__detail10_Hash_nodeIcLb0EEEED2Ev # -- Begin function _ZNSaINSt8__detail10_Hash_nodeIcLb0EEEED2Ev
	.p2align	4, 0x90
	.type	_ZNSaINSt8__detail10_Hash_nodeIcLb0EEEED2Ev,@function
_ZNSaINSt8__detail10_Hash_nodeIcLb0EEEED2Ev: # @_ZNSaINSt8__detail10_Hash_nodeIcLb0EEEED2Ev
	.cfi_startproc
# %bb.0:
	pushq	%rbp
	.cfi_def_cfa_offset 16
	.cfi_offset %rbp, -16
	movq	%rsp, %rbp
	.cfi_def_cfa_register %rbp
	subq	$16, %rsp
	movq	%rdi, -8(%rbp)
	movq	-8(%rbp), %rdi
	callq	_ZN9__gnu_cxx13new_allocatorINSt8__detail10_Hash_nodeIcLb0EEEED2Ev
	addq	$16, %rsp
	popq	%rbp
	retq
.Lfunc_end117:
	.size	_ZNSaINSt8__detail10_Hash_nodeIcLb0EEEED2Ev, .Lfunc_end117-_ZNSaINSt8__detail10_Hash_nodeIcLb0EEEED2Ev
	.cfi_endproc
                                        # -- End function
	.section	.text._ZN9__gnu_cxx13new_allocatorINSt8__detail10_Hash_nodeIcLb0EEEED2Ev,"axG",@progbits,_ZN9__gnu_cxx13new_allocatorINSt8__detail10_Hash_nodeIcLb0EEEED2Ev,comdat
	.weak	_ZN9__gnu_cxx13new_allocatorINSt8__detail10_Hash_nodeIcLb0EEEED2Ev # -- Begin function _ZN9__gnu_cxx13new_allocatorINSt8__detail10_Hash_nodeIcLb0EEEED2Ev
	.p2align	4, 0x90
	.type	_ZN9__gnu_cxx13new_allocatorINSt8__detail10_Hash_nodeIcLb0EEEED2Ev,@function
_ZN9__gnu_cxx13new_allocatorINSt8__detail10_Hash_nodeIcLb0EEEED2Ev: # @_ZN9__gnu_cxx13new_allocatorINSt8__detail10_Hash_nodeIcLb0EEEED2Ev
	.cfi_startproc
# %bb.0:
	pushq	%rbp
	.cfi_def_cfa_offset 16
	.cfi_offset %rbp, -16
	movq	%rsp, %rbp
	.cfi_def_cfa_register %rbp
	movq	%rdi, -8(%rbp)
	popq	%rbp
	retq
.Lfunc_end118:
	.size	_ZN9__gnu_cxx13new_allocatorINSt8__detail10_Hash_nodeIcLb0EEEED2Ev, .Lfunc_end118-_ZN9__gnu_cxx13new_allocatorINSt8__detail10_Hash_nodeIcLb0EEEED2Ev
	.cfi_endproc
                                        # -- End function
	.section	.text.startup,"ax",@progbits
	.p2align	4, 0x90         # -- Begin function _GLOBAL__sub_I_test.cpp
	.type	_GLOBAL__sub_I_test.cpp,@function
_GLOBAL__sub_I_test.cpp:                # @_GLOBAL__sub_I_test.cpp
	.cfi_startproc
# %bb.0:
	pushq	%rbp
	.cfi_def_cfa_offset 16
	.cfi_offset %rbp, -16
	movq	%rsp, %rbp
	.cfi_def_cfa_register %rbp
	callq	__cxx_global_var_init
	popq	%rbp
	retq
.Lfunc_end119:
	.size	_GLOBAL__sub_I_test.cpp, .Lfunc_end119-_GLOBAL__sub_I_test.cpp
	.cfi_endproc
                                        # -- End function
	.type	_ZStL8__ioinit,@object  # @_ZStL8__ioinit
	.local	_ZStL8__ioinit
	.comm	_ZStL8__ioinit,1,1
	.hidden	__dso_handle
	.type	.L.str,@object          # @.str
	.section	.rodata.str1.1,"aMS",@progbits,1
.L.str:
	.asciz	"abc"
	.size	.L.str, 4

	.section	.init_array,"aw",@init_array
	.p2align	3
	.quad	_GLOBAL__sub_I_test.cpp

	.ident	"clang version 6.0.0-1ubuntu2 (tags/RELEASE_600/final)"
	.section	".note.GNU-stack","",@progbits
